libruby-3.2.so.3.2 libruby3.2 #MINVER#
* Build-Depends-Package: ruby3.2-dev
 OnigDefaultCaseFoldFlag@Base 3.2.0
 OnigDefaultSyntax@Base 3.2.0
 OnigEncAsciiCtypeTable@Base 3.2.0
 OnigEncAsciiToLowerCaseTable@Base 3.2.0
 OnigEncAsciiToUpperCaseTable@Base 3.2.0
 OnigEncDefaultCharEncoding@Base 3.2.0
 OnigEncISO_8859_1_ToLowerCaseTable@Base 3.2.0
 OnigEncISO_8859_1_ToUpperCaseTable@Base 3.2.0
 OnigEncodingASCII@Base 3.2.0
 OnigSyntaxASIS@Base 3.2.0
 OnigSyntaxEmacs@Base 3.2.0
 OnigSyntaxGnuRegex@Base 3.2.0
 OnigSyntaxGrep@Base 3.2.0
 OnigSyntaxJava@Base 3.2.0
 OnigSyntaxPerl58@Base 3.2.0
 OnigSyntaxPerl58_NG@Base 3.2.0
 OnigSyntaxPerl@Base 3.2.0
 OnigSyntaxPosixBasic@Base 3.2.0
 OnigSyntaxPosixExtended@Base 3.2.0
 OnigSyntaxPython@Base 3.2.0
 OnigSyntaxRuby@Base 3.2.0
 RUBY_IO_BUFFER_DEFAULT_SIZE@Base 3.2.0
 RUBY_IO_BUFFER_PAGE_SIZE@Base 3.2.0
 _ZN100_$LT$$RF$std..os..unix..net..stream..UnixStream$u20$as$u20$std..sys..unix..kernel_copy..CopyRead$GT$10properties17h6c1cab6d3ab369d6E@Base 3.2.0
 _ZN100_$LT$core..ascii..EscapeDefault$u20$as$u20$core..iter..traits..double_ended..DoubleEndedIterator$GT$9next_back17hba337a9aed9a6ed0E@Base 3.2.0
 _ZN100_$LT$std..fs..Metadata$u20$as$u20$std..sys_common..FromInner$LT$std..sys..unix..fs..FileAttr$GT$$GT$10from_inner17ha0ea9b4d97112cc8E@Base 3.2.0
 _ZN100_$LT$std..sys..unix..args..Args$u20$as$u20$core..iter..traits..double_ended..DoubleEndedIterator$GT$9next_back17hb9dcf743869cfb9aE@Base 3.2.0
 _ZN101_$LT$$RF$std..os..unix..net..stream..UnixStream$u20$as$u20$std..sys..unix..kernel_copy..CopyWrite$GT$10properties17hf089ac2fbca0f18eE@Base 3.2.0
 _ZN101_$LT$core..char..CaseMappingIter$u20$as$u20$core..iter..traits..double_ended..DoubleEndedIterator$GT$9next_back17hb39b63f2931af1ecE@Base 3.2.0
 _ZN101_$LT$std..process..ExitStatusError$u20$as$u20$core..convert..Into$LT$std..process..ExitStatus$GT$$GT$4into17h0aaaceed610a617fE@Base 3.2.0
 _ZN101_$LT$std..sys..unix..process..process_inner..ExitStatus$u20$as$u20$core..convert..From$LT$i32$GT$$GT$4from17h42a10a3303890150E@Base 3.2.0
 _ZN102_$LT$std..net..addr..SocketAddr$u20$as$u20$core..convert..From$LT$std..net..addr..SocketAddrV4$GT$$GT$4from17h5c167d6b15e148e4E@Base 3.2.0
 _ZN102_$LT$std..net..addr..SocketAddr$u20$as$u20$core..convert..From$LT$std..net..addr..SocketAddrV6$GT$$GT$4from17hb5ea6089318ed3a5E@Base 3.2.0
 _ZN103_$LT$core..array..TryFromSliceError$u20$as$u20$core..convert..From$LT$core..convert..Infallible$GT$$GT$4from17ha98fde3e0fd85a83E@Base 3.2.0
 _ZN103_$LT$std..sync..mpsc..TryRecvError$u20$as$u20$core..convert..From$LT$std..sync..mpsc..RecvError$GT$$GT$4from17h8257473ba6279c8bE@Base 3.2.0
 _ZN104_$LT$std..fs..OpenOptions$u20$as$u20$std..sys_common..AsInner$LT$std..sys..unix..fs..OpenOptions$GT$$GT$8as_inner17h9b0d5479f377bcb8E@Base 3.2.0
 _ZN104_$LT$std..os..unix..net..ancillary..ScmCredentials$u20$as$u20$core..iter..traits..iterator..Iterator$GT$4next17h87b7be735cc3432dE@Base 3.2.0
 _ZN104_$LT$std..sys_common..net..LookupHost$u20$as$u20$core..convert..TryFrom$LT$$LP$$RF$str$C$u16$RP$$GT$$GT$8try_from17h0622b3c34f985fc8E@Base 3.2.0
 _ZN105_$LT$core..slice..ascii..EscapeAscii$u20$as$u20$core..iter..traits..double_ended..DoubleEndedIterator$GT$9next_back17h139a74c7f5eba202E@Base 3.2.0
 _ZN105_$LT$dyn$u20$core..any..Any$u2b$core..marker..Sync$u2b$core..marker..Send$u20$as$u20$core..fmt..Debug$GT$3fmt17h108c700beee05038E@Base 3.2.0
 _ZN105_$LT$std..fs..DirBuilder$u20$as$u20$std..sys_common..AsInnerMut$LT$std..sys..unix..fs..DirBuilder$GT$$GT$12as_inner_mut17hc139778483ba2105E@Base 3.2.0
 _ZN105_$LT$std..os..linux..process..PidFd$u20$as$u20$core..convert..From$LT$std..os..fd..owned..OwnedFd$GT$$GT$4from17h1fea2526ca28b091E@Base 3.2.0
 _ZN105_$LT$std..sys..unix..fs..File$u20$as$u20$std..sys_common..AsInner$LT$std..sys..unix..fd..FileDesc$GT$$GT$8as_inner17h67306d965916c6a5E@Base 3.2.0
 _ZN106_$LT$$LT$std..path..Iter$u20$as$u20$core..fmt..Debug$GT$..fmt..DebugHelper$u20$as$u20$core..fmt..Debug$GT$3fmt17hceb9e6f4e8b56847E@Base 3.2.0
 _ZN106_$LT$core..num..error..TryFromIntError$u20$as$u20$core..convert..From$LT$core..convert..Infallible$GT$$GT$4from17hd7778e9d00b3e8fcE@Base 3.2.0
 _ZN106_$LT$core..ops..range..Range$LT$usize$GT$$u20$as$u20$core..slice..index..SliceIndex$LT$$u5b$T$u5d$$GT$$GT$13get_unchecked8comptime17h4a3c55cbff77c306E@Base 3.2.0
 _ZN106_$LT$core..ops..range..Range$LT$usize$GT$$u20$as$u20$core..slice..index..SliceIndex$LT$$u5b$T$u5d$$GT$$GT$17get_unchecked_mut8comptime17ha6861135d7e7e06cE@Base 3.2.0
 _ZN107_$LT$std..fs..OpenOptions$u20$as$u20$std..sys_common..AsInnerMut$LT$std..sys..unix..fs..OpenOptions$GT$$GT$12as_inner_mut17h4c80c29840d4b3e1E@Base 3.2.0
 _ZN107_$LT$std..process..ChildStdin$u20$as$u20$std..sys_common..AsInner$LT$std..sys..unix..pipe..AnonPipe$GT$$GT$8as_inner17hd8e4e0edec6fb4f3E@Base 3.2.0
 _ZN107_$LT$std..sync..mpsc..RecvTimeoutError$u20$as$u20$core..convert..From$LT$std..sync..mpsc..RecvError$GT$$GT$4from17hd967b4c0751fc0f5E@Base 3.2.0
 _ZN107_$LT$std..sys..unix..fs..File$u20$as$u20$std..sys_common..FromInner$LT$std..sys..unix..fd..FileDesc$GT$$GT$10from_inner17h3db3d1af5435db1aE@Base 3.2.0
 _ZN107_$LT$std..sys..unix..fs..File$u20$as$u20$std..sys_common..IntoInner$LT$std..sys..unix..fd..FileDesc$GT$$GT$10into_inner17h6d9e2cebfe7061b2E@Base 3.2.0
 _ZN107_$LT$std..sys..unix..os_str..Buf$u20$as$u20$std..sys_common..IntoInner$LT$alloc..vec..Vec$LT$u8$GT$$GT$$GT$10into_inner17ha9d6733e66643f29E@Base 3.2.0
 _ZN107_$LT$std..sys..unix..time..inner..SystemTime$u20$as$u20$core..convert..From$LT$libc..unix..timespec$GT$$GT$4from17h7ddf78a7f330f4dfE@Base 3.2.0
 _ZN107_$LT$std..sys_common..process..CommandEnvs$u20$as$u20$core..iter..traits..exact_size..ExactSizeIterator$GT$3len17hd490e77397f037d7E@Base 3.2.0
 _ZN107_$LT$std..sys_common..process..CommandEnvs$u20$as$u20$core..iter..traits..exact_size..ExactSizeIterator$GT$8is_empty17hd6f4b217271a019bE@Base 3.2.0
 _ZN108_$LT$$RF$std..os..unix..net..listener..UnixListener$u20$as$u20$core..iter..traits..collect..IntoIterator$GT$9into_iter17h35fceb9cfb3e58ebE@Base 3.2.0
 _ZN108_$LT$std..fs..Permissions$u20$as$u20$std..sys_common..AsInner$LT$std..sys..unix..fs..FilePermissions$GT$$GT$8as_inner17h371c75c124a7c2e7E@Base 3.2.0
 _ZN108_$LT$std..net..tcp..TcpStream$u20$as$u20$std..sys_common..AsInner$LT$std..sys_common..net..TcpStream$GT$$GT$8as_inner17h579cbc383aff596aE@Base 3.2.0
 _ZN108_$LT$std..net..udp..UdpSocket$u20$as$u20$std..sys_common..AsInner$LT$std..sys_common..net..UdpSocket$GT$$GT$8as_inner17h535fc179eb72dd20E@Base 3.2.0
 _ZN108_$LT$std..process..ChildStderr$u20$as$u20$std..sys_common..AsInner$LT$std..sys..unix..pipe..AnonPipe$GT$$GT$8as_inner17h01b2747e1a061ba3E@Base 3.2.0
 _ZN108_$LT$std..process..ChildStdout$u20$as$u20$std..sys_common..AsInner$LT$std..sys..unix..pipe..AnonPipe$GT$$GT$8as_inner17he855fffad04df923E@Base 3.2.0
 _ZN108_$LT$std..sys..unix..fd..FileDesc$u20$as$u20$std..sys_common..AsInner$LT$std..os..fd..owned..OwnedFd$GT$$GT$8as_inner17hf83b2706b6c5b173E@Base 3.2.0
 _ZN108_$LT$std..sys..unix..fs..File$u20$as$u20$std..sys_common..AsInnerMut$LT$std..sys..unix..fd..FileDesc$GT$$GT$12as_inner_mut17hf9b1a38983465a1fE@Base 3.2.0
 _ZN108_$LT$std..sys..unix..net..Socket$u20$as$u20$std..sys_common..AsInner$LT$std..sys..unix..fd..FileDesc$GT$$GT$8as_inner17hdcd15a44a211e69dE@Base 3.2.0
 _ZN109_$LT$std..process..ChildStdin$u20$as$u20$std..sys_common..FromInner$LT$std..sys..unix..pipe..AnonPipe$GT$$GT$10from_inner17hb46aaf52afa378c8E@Base 3.2.0
 _ZN109_$LT$std..process..ChildStdin$u20$as$u20$std..sys_common..IntoInner$LT$std..sys..unix..pipe..AnonPipe$GT$$GT$10into_inner17h7c14432e40800a48E@Base 3.2.0
 _ZN110_$LT$std..fs..Permissions$u20$as$u20$std..sys_common..FromInner$LT$std..sys..unix..fs..FilePermissions$GT$$GT$10from_inner17h4da16fed2cdc3a68E@Base 3.2.0
 _ZN110_$LT$std..net..tcp..TcpStream$u20$as$u20$std..sys_common..FromInner$LT$std..sys_common..net..TcpStream$GT$$GT$10from_inner17h1c844bec94178cddE@Base 3.2.0
 _ZN110_$LT$std..net..tcp..TcpStream$u20$as$u20$std..sys_common..IntoInner$LT$std..sys_common..net..TcpStream$GT$$GT$10into_inner17h88adfd699ac000e7E@Base 3.2.0
 _ZN110_$LT$std..net..udp..UdpSocket$u20$as$u20$std..sys_common..FromInner$LT$std..sys_common..net..UdpSocket$GT$$GT$10from_inner17hcc0904eb67c49983E@Base 3.2.0
 _ZN110_$LT$std..net..udp..UdpSocket$u20$as$u20$std..sys_common..IntoInner$LT$std..sys_common..net..UdpSocket$GT$$GT$10into_inner17h945133bbbda692aeE@Base 3.2.0
 _ZN110_$LT$std..process..ChildStderr$u20$as$u20$std..sys_common..FromInner$LT$std..sys..unix..pipe..AnonPipe$GT$$GT$10from_inner17h622349921c9b8cdbE@Base 3.2.0
 _ZN110_$LT$std..process..ChildStderr$u20$as$u20$std..sys_common..IntoInner$LT$std..sys..unix..pipe..AnonPipe$GT$$GT$10into_inner17h84cf494609bbf27fE@Base 3.2.0
 _ZN110_$LT$std..process..ChildStdout$u20$as$u20$std..sys_common..FromInner$LT$std..sys..unix..pipe..AnonPipe$GT$$GT$10from_inner17h033dfaa861da2ee0E@Base 3.2.0
 _ZN110_$LT$std..process..ChildStdout$u20$as$u20$std..sys_common..IntoInner$LT$std..sys..unix..pipe..AnonPipe$GT$$GT$10into_inner17h1ae56b96dbfbf15fE@Base 3.2.0
 _ZN110_$LT$std..sys..unix..fd..FileDesc$u20$as$u20$std..sys_common..FromInner$LT$std..os..fd..owned..OwnedFd$GT$$GT$10from_inner17hb903420620a8d11bE@Base 3.2.0
 _ZN110_$LT$std..sys..unix..fd..FileDesc$u20$as$u20$std..sys_common..IntoInner$LT$std..os..fd..owned..OwnedFd$GT$$GT$10into_inner17hd090d57e3f00413cE@Base 3.2.0
 _ZN110_$LT$std..sys..unix..net..Socket$u20$as$u20$std..sys_common..FromInner$LT$std..sys..unix..fd..FileDesc$GT$$GT$10from_inner17h202c79af06658f0bE@Base 3.2.0
 _ZN110_$LT$std..sys..unix..net..Socket$u20$as$u20$std..sys_common..IntoInner$LT$std..sys..unix..fd..FileDesc$GT$$GT$10into_inner17hcde1a6f241cd46beE@Base 3.2.0
 _ZN111_$LT$std..io..buffered..bufwriter..BufWriter$LT$W$GT$..flush_buf..BufGuard$u20$as$u20$core..ops..drop..Drop$GT$4drop17h2168f5e60a0a8336E@Base 3.2.0
 _ZN111_$LT$std..os..linux..process..PidFd$u20$as$u20$std..sys_common..AsInner$LT$std..sys..unix..fd..FileDesc$GT$$GT$8as_inner17h12c1155cd662e570E@Base 3.2.0
 _ZN111_$LT$std..sys..unix..process..process_common..CommandArgs$u20$as$u20$core..iter..traits..iterator..Iterator$GT$4next17h7cbe297112b6da97E@Base 3.2.0
 _ZN111_$LT$std..sys..unix..process..process_common..CommandArgs$u20$as$u20$core..iter..traits..iterator..Iterator$GT$9size_hint17hf585498037c8ac37E@Base 3.2.0
 _ZN112_$LT$$LT$std..path..Components$u20$as$u20$core..fmt..Debug$GT$..fmt..DebugHelper$u20$as$u20$core..fmt..Debug$GT$3fmt17he7100f335933e348E@Base 3.2.0
 _ZN112_$LT$std..net..tcp..TcpListener$u20$as$u20$std..sys_common..AsInner$LT$std..sys_common..net..TcpListener$GT$$GT$8as_inner17h860a3ee87850894fE@Base 3.2.0
 _ZN113_$LT$std..ffi..c_str..CStr$u20$as$u20$core..ops..index..Index$LT$core..ops..range..RangeFrom$LT$usize$GT$$GT$$GT$5index17h7051d8a0730395a3E@Base 3.2.0
 _ZN113_$LT$std..os..linux..process..PidFd$u20$as$u20$std..sys_common..FromInner$LT$std..sys..unix..fd..FileDesc$GT$$GT$10from_inner17h66d9bff22d23e34aE@Base 3.2.0
 _ZN113_$LT$std..os..linux..process..PidFd$u20$as$u20$std..sys_common..IntoInner$LT$std..sys..unix..fd..FileDesc$GT$$GT$10into_inner17h03a8672619aa2887E@Base 3.2.0
 _ZN113_$LT$std..sys..unix..pipe..AnonPipe$u20$as$u20$std..sys_common..IntoInner$LT$std..sys..unix..fd..FileDesc$GT$$GT$10into_inner17h0dde455d8ff74d8fE@Base 3.2.0
 _ZN113_$LT$std..sys_common..net..TcpStream$u20$as$u20$std..sys_common..FromInner$LT$std..sys..unix..net..Socket$GT$$GT$10from_inner17h2b745b45da5efa60E@Base 3.2.0
 _ZN113_$LT$std..sys_common..net..UdpSocket$u20$as$u20$std..sys_common..FromInner$LT$std..sys..unix..net..Socket$GT$$GT$10from_inner17h3bcaf77a69a6c406E@Base 3.2.0
 _ZN114_$LT$std..net..tcp..TcpListener$u20$as$u20$std..sys_common..FromInner$LT$std..sys_common..net..TcpListener$GT$$GT$10from_inner17h86e5f9d6c278220eE@Base 3.2.0
 _ZN114_$LT$std..net..tcp..TcpListener$u20$as$u20$std..sys_common..IntoInner$LT$std..sys_common..net..TcpListener$GT$$GT$10into_inner17h6f9eb755306a08a7E@Base 3.2.0
 _ZN115_$LT$std..sys_common..net..TcpListener$u20$as$u20$std..sys_common..FromInner$LT$std..sys..unix..net..Socket$GT$$GT$10from_inner17he8e4ab59a410d579E@Base 3.2.0
 _ZN115_$LT$std..time..SystemTime$u20$as$u20$std..sys_common..FromInner$LT$std..sys..unix..time..inner..SystemTime$GT$$GT$10from_inner17h8293b7fc9bd5ec98E@Base 3.2.0
 _ZN118_$LT$std..net..addr..SocketAddrV4$u20$as$u20$std..sys_common..FromInner$LT$libc..unix..linux_like..sockaddr_in$GT$$GT$10from_inner17he7cbe26928687dc1E@Base 3.2.0
 _ZN118_$LT$std..sys..unix..process..process_common..Stdio$u20$as$u20$core..convert..From$LT$std..sys..unix..fs..File$GT$$GT$4from17hc162efb780eda23aE@Base 3.2.0
 _ZN119_$LT$std..net..addr..SocketAddrV6$u20$as$u20$std..sys_common..FromInner$LT$libc..unix..linux_like..sockaddr_in6$GT$$GT$10from_inner17hcf7df7ae3d81877fE@Base 3.2.0
 _ZN119_$LT$std..process..Child$u20$as$u20$std..sys_common..AsInner$LT$std..sys..unix..process..process_inner..Process$GT$$GT$8as_inner17h4aa1a28e6f0c0003E@Base 3.2.0
 _ZN11miniz_oxide7inflate4core10decompress17ha5c821f9eda75312E@Base 3.2.0
 _ZN11miniz_oxide7inflate4core12HuffmanTable3new17hdf6a826746115bafE@Base 3.2.0
 _ZN11miniz_oxide7inflate4core17DecompressorOxide3new17h5c453d09052f48e2E@Base 3.2.0
 _ZN11miniz_oxide7inflate4core5State10is_failure17h11dff01f86dbe1ccE@Base 3.2.0
 _ZN120_$LT$std..process..Stdio$u20$as$u20$std..sys_common..FromInner$LT$std..sys..unix..process..process_common..Stdio$GT$$GT$10from_inner17hd8c9c3b28964c7b1E@Base 3.2.0
 _ZN121_$LT$std..process..Child$u20$as$u20$std..sys_common..IntoInner$LT$std..sys..unix..process..process_inner..Process$GT$$GT$10into_inner17h301cb1763f3dcf84E@Base 3.2.0
 _ZN122_$LT$std..process..Command$u20$as$u20$std..sys_common..AsInner$LT$std..sys..unix..process..process_common..Command$GT$$GT$8as_inner17h15857492afa185ebE@Base 3.2.0
 _ZN122_$LT$std..sys..unix..process..process_common..CommandArgs$u20$as$u20$core..iter..traits..exact_size..ExactSizeIterator$GT$3len17h0a9f86dde3fe5afbE@Base 3.2.0
 _ZN122_$LT$std..sys..unix..process..process_common..CommandArgs$u20$as$u20$core..iter..traits..exact_size..ExactSizeIterator$GT$8is_empty17h0d5737feba96b74cE@Base 3.2.0
 _ZN124_$LT$std..sys..unix..process..process_common..Stdio$u20$as$u20$core..convert..From$LT$std..sys..unix..pipe..AnonPipe$GT$$GT$4from17h3163fcdfc8f59473E@Base 3.2.0
 _ZN125_$LT$std..process..Command$u20$as$u20$std..sys_common..AsInnerMut$LT$std..sys..unix..process..process_common..Command$GT$$GT$12as_inner_mut17he73a34b66f4ac918E@Base 3.2.0
 _ZN127_$LT$$LT$core..cell..RefCell$LT$T$GT$$u20$as$u20$core..fmt..Debug$GT$..fmt..BorrowedPlaceholder$u20$as$u20$core..fmt..Debug$GT$3fmt17h9cfe7f9a235272e3E@Base 3.2.0
 _ZN127_$LT$std..process..ExitStatus$u20$as$u20$std..sys_common..AsInner$LT$std..sys..unix..process..process_inner..ExitStatus$GT$$GT$8as_inner17hc3c2090857352c6aE@Base 3.2.0
 _ZN129_$LT$$LT$std..sync..mutex..Mutex$LT$T$GT$$u20$as$u20$core..fmt..Debug$GT$..fmt..LockedPlaceholder$u20$as$u20$core..fmt..Debug$GT$3fmt17h3f819b988d6f085cE@Base 3.2.0
 _ZN129_$LT$std..process..ExitStatus$u20$as$u20$std..sys_common..FromInner$LT$std..sys..unix..process..process_inner..ExitStatus$GT$$GT$10from_inner17h36c6ebad78ba0413E@Base 3.2.0
 _ZN131_$LT$$LT$std..sync..rwlock..RwLock$LT$T$GT$$u20$as$u20$core..fmt..Debug$GT$..fmt..LockedPlaceholder$u20$as$u20$core..fmt..Debug$GT$3fmt17h054e7e4e637ca618E@Base 3.2.0
 _ZN137_$LT$std..sys..unix..fs..FileAttr$u20$as$u20$std..sys_common..AsInner$LT$libc..unix..linux_like..linux..gnu..b64..aarch64..stat64$GT$$GT$8as_inner17h270c4dcc317b39ecE@Base 3.2.0
 _ZN145_$LT$$RF$std..net..addr..SocketAddr$u20$as$u20$std..sys_common..IntoInner$LT$$LP$$BP$const$u20$libc..unix..linux_like..sockaddr$C$u32$RP$$GT$$GT$10into_inner17h39b24da838043bc3E@Base 3.2.0
 _ZN145_$LT$gimli..read..abbrev..Attributes$u20$as$u20$core..convert..From$LT$alloc..vec..Vec$LT$gimli..read..abbrev..AttributeSpecification$GT$$GT$$GT$4from17h37402230aeddceddE@Base 3.2.0
 _ZN14rustc_demangle12try_demangle17hcbdb03017e2d0a9fE@Base 3.2.0
 _ZN14rustc_demangle2v010HexNibbles19try_parse_str_chars28_$u7b$$u7b$closure$u7d$$u7d$28_$u7b$$u7b$closure$u7d$$u7d$24utf8_len_from_first_byte17h304c3b1f2b66a25aE@Base 3.2.0
 _ZN14rustc_demangle8Demangle6as_str17h11382ba2fe802f5eE@Base 3.2.0
 _ZN14rustc_demangle8demangle17ha34410c4165839daE@Base 3.2.0
 _ZN153_$LT$std..sys..unix..process..process_inner..ExitStatusError$u20$as$u20$core..convert..Into$LT$std..sys..unix..process..process_inner..ExitStatus$GT$$GT$4into17h066d6294df795217E@Base 3.2.0
 _ZN163_$LT$std..sys..unix..process..process_inner..$LT$impl$u20$std..sys..unix..process..process_common..Command$GT$..do_exec..Reset$u20$as$u20$core..ops..drop..Drop$GT$4drop17he5d07ec733acb50bE@Base 3.2.0
 _ZN176_$LT$std..sys..unix..process..process_inner..$LT$impl$u20$std..sys..unix..process..process_common..Command$GT$..posix_spawn..PosixSpawnattr$u20$as$u20$core..ops..drop..Drop$GT$4drop17hdedfeeb90d0dfeedE@Base 3.2.0
 _ZN183_$LT$std..process..Child$u20$as$u20$std..sys_common..FromInner$LT$$LP$std..sys..unix..process..process_inner..Process$C$std..sys..unix..process..process_common..StdioPipes$RP$$GT$$GT$10from_inner17hc731e8c7576484d4E@Base 3.2.0
 _ZN183_$LT$std..sys..unix..process..process_inner..$LT$impl$u20$std..sys..unix..process..process_common..Command$GT$..posix_spawn..PosixSpawnFileActions$u20$as$u20$core..ops..drop..Drop$GT$4drop17h609ae02a62552665E@Base 3.2.0
 _ZN242_$LT$std..error..$LT$impl$u20$core..convert..From$LT$alloc..string..String$GT$$u20$for$u20$alloc..boxed..Box$LT$dyn$u20$std..error..Error$u2b$core..marker..Sync$u2b$core..marker..Send$GT$$GT$..from..StringError$u20$as$u20$core..fmt..Debug$GT$3fmt17h346fc3e4409ae1cfE@Base 3.2.0
 _ZN243_$LT$std..error..$LT$impl$u20$core..convert..From$LT$alloc..string..String$GT$$u20$for$u20$alloc..boxed..Box$LT$dyn$u20$std..error..Error$u2b$core..marker..Sync$u2b$core..marker..Send$GT$$GT$..from..StringError$u20$as$u20$std..error..Error$GT$11description17h6c1b6012b40b85f4E@Base 3.2.0
 _ZN244_$LT$std..error..$LT$impl$u20$core..convert..From$LT$alloc..string..String$GT$$u20$for$u20$alloc..boxed..Box$LT$dyn$u20$std..error..Error$u2b$core..marker..Sync$u2b$core..marker..Send$GT$$GT$..from..StringError$u20$as$u20$core..fmt..Display$GT$3fmt17ha119887566afedc3E@Base 3.2.0
 _ZN3std10sys_common11thread_info3set17ha1c9d85c4f441a65E@Base 3.2.0
 _ZN3std10sys_common16thread_local_key9StaticKey3new17hb6424c99253a0405E@Base 3.2.0
 _ZN3std10sys_common16thread_local_key9StaticKey9lazy_init17h5de20891e9ed1355E@Base 3.2.0
 _ZN3std10sys_common2fs10try_exists17h4ae3b09f25febdbaE@Base 3.2.0
 _ZN3std10sys_common3net11TcpListener11into_socket17ha364f46990b12636E@Base 3.2.0
 _ZN3std10sys_common3net11TcpListener4bind17h18ede5ceabe1f327E@Base 3.2.0
 _ZN3std10sys_common3net11TcpListener6socket17hd118fe8a9518a03cE@Base 3.2.0
 _ZN3std10sys_common3net9TcpStream11into_socket17h02536a127806cd55E@Base 3.2.0
 _ZN3std10sys_common3net9TcpStream6socket17h3e7ab73f51b86d11E@Base 3.2.0
 _ZN3std10sys_common3net9TcpStream7connect17h5b4242f97ced718cE@Base 3.2.0
 _ZN3std10sys_common3net9UdpSocket11into_socket17h3398cfb5c67d8afcE@Base 3.2.0
 _ZN3std10sys_common3net9UdpSocket4bind17h1b1827c4bb07c367E@Base 3.2.0
 _ZN3std10sys_common3net9UdpSocket6socket17hd679a7a1b2b4d73cE@Base 3.2.0
 _ZN3std10sys_common3net9UdpSocket7connect17h1956ff4528b85269E@Base 3.2.0
 _ZN3std10sys_common3net9UdpSocket7send_to17hdaa8b2c80aba0ec8E@Base 3.2.0
 _ZN3std10sys_common4wtf816slice_error_fail17hd74abf3924ed92deE@Base 3.2.0
 _ZN3std10sys_common4wtf87Wtf8Buf25push_code_point_unchecked17hc5d8eb609fdea9b3E@Base 3.2.0
 _ZN3std10sys_common5mutex12MovableMutex3new17h123c955186a60ecaE@Base 3.2.0
 _ZN3std10sys_common5mutex12MovableMutex3raw17hf9e1dc6cf0390a2fE@Base 3.2.0
 _ZN3std10sys_common6rwlock13MovableRWLock3new17h757da8633217c0e4E@Base 3.2.0
 _ZN3std10sys_common6thread9min_stack17h3470c690ef3fc28bE@Base 3.2.0
 _ZN3std10sys_common7condvar5check14SameMutexCheck6verify17h4c4c3cc267a5edc8E@Base 3.2.0
 _ZN3std10sys_common7process10CommandEnv3set17hec73c4c4876acef4E@Base 3.2.0
 _ZN3std10sys_common7process10CommandEnv6remove17h674e616654a71089E@Base 3.2.0
 _ZN3std11collections4hash3map11RandomState3new4KEYS7__getit5__KEY17hdcb0d25127ab91f1E@Base 3.2.0
 _ZN3std11collections4hash3map13DefaultHasher3new17hc11607827dcf18ebE@Base 3.2.0
 _ZN3std2fs10DirBuilder3new17hac5fc4b686ffc558E@Base 3.2.0
 _ZN3std2fs10DirBuilder7_create17h9992a24f23bc4e6fE@Base 3.2.0
 _ZN3std2fs10DirBuilder9recursive17he9ea2d6dcaea9e55E@Base 3.2.0
 _ZN3std2fs11OpenOptions10create_new17h296a086d5a7a5ed5E@Base 3.2.0
 _ZN3std2fs11OpenOptions3new17h01ecc2788f2819bfE@Base 3.2.0
 _ZN3std2fs11OpenOptions4read17ha224d7d5104d4e86E@Base 3.2.0
 _ZN3std2fs11OpenOptions5_open17hcd01ae9880171f64E@Base 3.2.0
 _ZN3std2fs11OpenOptions5write17h082923d6a35d629aE@Base 3.2.0
 _ZN3std2fs11OpenOptions6append17h2ae44685bc946bd2E@Base 3.2.0
 _ZN3std2fs11OpenOptions6create17h1ca7c3fcb7ed6382E@Base 3.2.0
 _ZN3std2fs11OpenOptions8truncate17h326fba335b20e8a7E@Base 3.2.0
 _ZN3std2fs11Permissions12set_readonly17h439e2e21af7562fbE@Base 3.2.0
 _ZN3std2fs11Permissions8readonly17hd718e398580723b4E@Base 3.2.0
 _ZN3std2fs14read_to_string5inner17h6828b217612e1998E@Base 3.2.0
 _ZN3std2fs4File15set_permissions17h922322881c130160E@Base 3.2.0
 _ZN3std2fs4File7options17h1943f9542e17addfE@Base 3.2.0
 _ZN3std2fs4File7set_len17h3b13c3629a0b3bfeE@Base 3.2.0
 _ZN3std2fs4File8metadata17h5cd62a006133a480E@Base 3.2.0
 _ZN3std2fs4File8sync_all17h0539d25fa2b4acc4E@Base 3.2.0
 _ZN3std2fs4File9sync_data17h7976645d5c2856adE@Base 3.2.0
 _ZN3std2fs4File9try_clone17hf899977c66f565f5E@Base 3.2.0
 _ZN3std2fs4read5inner17heb43ad8009019ac9E@Base 3.2.0
 _ZN3std2fs5write5inner17h848c0659a782740cE@Base 3.2.0
 _ZN3std2fs8DirEntry4path17he6ff240a937a960dE@Base 3.2.0
 _ZN3std2fs8DirEntry8metadata17h2c6ba9108fbb8bafE@Base 3.2.0
 _ZN3std2fs8DirEntry9file_name17h899c05fda2d1d948E@Base 3.2.0
 _ZN3std2fs8DirEntry9file_type17h53dc93ec1dbd1c0fE@Base 3.2.0
 _ZN3std2fs8FileType10is_symlink17h9d6b1a3e064a9011E@Base 3.2.0
 _ZN3std2fs8FileType6is_dir17hca15ccc33d08a8b8E@Base 3.2.0
 _ZN3std2fs8FileType7is_file17h7b8f841bfc8b9f1eE@Base 3.2.0
 _ZN3std2fs8Metadata10is_symlink17hd6a259e48ee13e05E@Base 3.2.0
 _ZN3std2fs8Metadata11permissions17h1c83bad77e6aba6bE@Base 3.2.0
 _ZN3std2fs8Metadata3len17hd5b705a232fe4d80E@Base 3.2.0
 _ZN3std2fs8Metadata6is_dir17h2e2c996ba3d50396E@Base 3.2.0
 _ZN3std2fs8Metadata7created17ha032d0aa34748fcaE@Base 3.2.0
 _ZN3std2fs8Metadata7is_file17hf3821d012ad85841E@Base 3.2.0
 _ZN3std2fs8Metadata8accessed17hd415f5f0f0ef1934E@Base 3.2.0
 _ZN3std2fs8Metadata8modified17h603031cf525bf196E@Base 3.2.0
 _ZN3std2fs8Metadata9file_type17hed00c4a14dd3cebcE@Base 3.2.0
 _ZN3std2io4util4sink17h57112af73b230f5aE@Base 3.2.0
 _ZN3std2io4util5empty17hc1435cc03980cdc1E@Base 3.2.0
 _ZN3std2io4util6repeat17h0a786cd0f420a6d8E@Base 3.2.0
 _ZN3std2io5error13SimpleMessage3new17hdb3583c04f3037ccE@Base 3.2.0
 _ZN3std2io5error5Error4_new17he9f2c874fb2aa53cE@Base 3.2.0
 _ZN3std2io5error83_$LT$impl$u20$core..fmt..Debug$u20$for$u20$std..io..error..repr_bitpacked..Repr$GT$3fmt17h4c3e1dc5840e80a3E@Base 3.2.0
 _ZN3std2io5stdio18set_output_capture17hf1c6071b9380b4daE@Base 3.2.0
 _ZN3std2io5stdio5Stdin4lock17h23ee9d054aa3ae7cE@Base 3.2.0
 _ZN3std2io5stdio5Stdin5lines17h870cc683a4c953fdE@Base 3.2.0
 _ZN3std2io5stdio5Stdin9read_line17hf820c954d500a5faE@Base 3.2.0
 _ZN3std2io5stdio5stdin17h42bb81b530af2839E@Base 3.2.0
 _ZN3std2io5stdio6Stderr4lock17hdc00afdfb946c341E@Base 3.2.0
 _ZN3std2io5stdio6Stdout4lock17h03cc2c3405238e6eE@Base 3.2.0
 _ZN3std2io5stdio6_print17h6f091714bef98ba9E@Base 3.2.0
 _ZN3std2io5stdio6stderr17hce73a54940b47e30E@Base 3.2.0
 _ZN3std2io5stdio6stdout17h76d33c71a07da729E@Base 3.2.0
 _ZN3std2io5stdio7_eprint17h598236fd6309d591E@Base 3.2.0
 _ZN3std2io5stdio9StdinLock10as_mut_buf17hbcf1d70c26635cd6E@Base 3.2.0
 _ZN3std2io8buffered9bufwriter14WriterPanicked10into_inner17h3b8489df3810549cE@Base 3.2.0
 _ZN3std2io8buffered9bufwriter18BufWriter$LT$W$GT$9flush_buf8BufGuard3new17h20cd35e563454641E@Base 3.2.0
 _ZN3std2io8buffered9bufwriter18BufWriter$LT$W$GT$9flush_buf8BufGuard4done17hf341480277c27a5eE@Base 3.2.0
 _ZN3std2io8buffered9bufwriter18BufWriter$LT$W$GT$9flush_buf8BufGuard7consume17h523d136667f58505E@Base 3.2.0
 _ZN3std2io8buffered9bufwriter18BufWriter$LT$W$GT$9flush_buf8BufGuard9remaining17hfc171cf13409f2b2E@Base 3.2.0
 _ZN3std2os2fd5owned7OwnedFd9try_clone17ha77d66d43f88d920E@Base 3.2.0
 _ZN3std2os4unix3net4addr10SocketAddr10is_unnamed17h6763c9715efd0497E@Base 3.2.0
 _ZN3std2os4unix3net4addr10SocketAddr11as_pathname17h0b03baf3201e56baE@Base 3.2.0
 _ZN3std2os4unix3net4addr10SocketAddr21as_abstract_namespace17hba3070fc9e765332E@Base 3.2.0
 _ZN3std2os4unix3net4addr10SocketAddr23from_abstract_namespace17h4b77811b4cac64c6E@Base 3.2.0
 _ZN3std2os4unix3net4addr11sockaddr_un17hcd6eb1d84d9dafecE@Base 3.2.0
 _ZN3std2os4unix3net6stream10UnixStream10local_addr17h5463b2ffb3cfb0f8E@Base 3.2.0
 _ZN3std2os4unix3net6stream10UnixStream10take_error17hc4f7c928d780bd30E@Base 3.2.0
 _ZN3std2os4unix3net6stream10UnixStream12connect_addr17ha8d390b9cdfa165fE@Base 3.2.0
 _ZN3std2os4unix3net6stream10UnixStream12read_timeout17hb6bd758d64080b86E@Base 3.2.0
 _ZN3std2os4unix3net6stream10UnixStream12set_passcred17h2529ebdae955a067E@Base 3.2.0
 _ZN3std2os4unix3net6stream10UnixStream13write_timeout17h46d65383ac76ce49E@Base 3.2.0
 _ZN3std2os4unix3net6stream10UnixStream15set_nonblocking17h3329673cc2be6068E@Base 3.2.0
 _ZN3std2os4unix3net6stream10UnixStream16set_read_timeout17hc50827c0edf0b909E@Base 3.2.0
 _ZN3std2os4unix3net6stream10UnixStream17set_write_timeout17hb841978c7b2b2731E@Base 3.2.0
 _ZN3std2os4unix3net6stream10UnixStream28recv_vectored_with_ancillary17h8794e9867e6e2d93E@Base 3.2.0
 _ZN3std2os4unix3net6stream10UnixStream28send_vectored_with_ancillary17hd5aab7605b710232E@Base 3.2.0
 _ZN3std2os4unix3net6stream10UnixStream4pair17hed3dc48e94ea5b7fE@Base 3.2.0
 _ZN3std2os4unix3net6stream10UnixStream4peek17hfea0f2b70bb74e83E@Base 3.2.0
 _ZN3std2os4unix3net6stream10UnixStream8passcred17h02920cf8934a7b7aE@Base 3.2.0
 _ZN3std2os4unix3net6stream10UnixStream8shutdown17hd703e75453c479c6E@Base 3.2.0
 _ZN3std2os4unix3net6stream10UnixStream9peer_addr17h308b7c09244d55a4E@Base 3.2.0
 _ZN3std2os4unix3net6stream10UnixStream9peer_cred17h78e3a20d41721304E@Base 3.2.0
 _ZN3std2os4unix3net6stream10UnixStream9try_clone17h8ddcd58bca05cb81E@Base 3.2.0
 _ZN3std2os4unix3net8datagram12UnixDatagram10local_addr17hbefe5ad0713cf664E@Base 3.2.0
 _ZN3std2os4unix3net8datagram12UnixDatagram10take_error17h1573c9abdaedc9f9E@Base 3.2.0
 _ZN3std2os4unix3net8datagram12UnixDatagram12connect_addr17h893f943ee42a683bE@Base 3.2.0
 _ZN3std2os4unix3net8datagram12UnixDatagram12read_timeout17h525fec4e10cd0be6E@Base 3.2.0
 _ZN3std2os4unix3net8datagram12UnixDatagram12send_to_addr17h4f81b1230fe0d6a7E@Base 3.2.0
 _ZN3std2os4unix3net8datagram12UnixDatagram12set_passcred17h8b3655071727019cE@Base 3.2.0
 _ZN3std2os4unix3net8datagram12UnixDatagram13write_timeout17hc614a7244653f3eeE@Base 3.2.0
 _ZN3std2os4unix3net8datagram12UnixDatagram15set_nonblocking17h0a709825f08fe0eeE@Base 3.2.0
 _ZN3std2os4unix3net8datagram12UnixDatagram16set_read_timeout17hd438f902f9221e11E@Base 3.2.0
 _ZN3std2os4unix3net8datagram12UnixDatagram17set_write_timeout17hb4abe0cd130c6599E@Base 3.2.0
 _ZN3std2os4unix3net8datagram12UnixDatagram28recv_vectored_with_ancillary17h1ac78ffccaf2ea48E@Base 3.2.0
 _ZN3std2os4unix3net8datagram12UnixDatagram28send_vectored_with_ancillary17he17782aaaa99f311E@Base 3.2.0
 _ZN3std2os4unix3net8datagram12UnixDatagram33recv_vectored_with_ancillary_from17h491eb47c56504dd9E@Base 3.2.0
 _ZN3std2os4unix3net8datagram12UnixDatagram4pair17haec09d1e3afd023dE@Base 3.2.0
 _ZN3std2os4unix3net8datagram12UnixDatagram4peek17hf339970853ac65dfE@Base 3.2.0
 _ZN3std2os4unix3net8datagram12UnixDatagram4recv17h57cb0f4cee315be4E@Base 3.2.0
 _ZN3std2os4unix3net8datagram12UnixDatagram4send17he76779fe324c1922E@Base 3.2.0
 _ZN3std2os4unix3net8datagram12UnixDatagram7unbound17h87597d10abfc35e9E@Base 3.2.0
 _ZN3std2os4unix3net8datagram12UnixDatagram8passcred17h9c48e08e50829194E@Base 3.2.0
 _ZN3std2os4unix3net8datagram12UnixDatagram8shutdown17hdcf1071c260595c6E@Base 3.2.0
 _ZN3std2os4unix3net8datagram12UnixDatagram9bind_addr17hcd68cc910c50e0adE@Base 3.2.0
 _ZN3std2os4unix3net8datagram12UnixDatagram9peek_from17h07dfe7d57dd94904E@Base 3.2.0
 _ZN3std2os4unix3net8datagram12UnixDatagram9peer_addr17hef7b6e79241ba8dbE@Base 3.2.0
 _ZN3std2os4unix3net8datagram12UnixDatagram9recv_from17h60c68d2b6684412fE@Base 3.2.0
 _ZN3std2os4unix3net8datagram12UnixDatagram9try_clone17h333eb76f3309f150E@Base 3.2.0
 _ZN3std2os4unix3net8listener12UnixListener10local_addr17heaad836e27f4cc44E@Base 3.2.0
 _ZN3std2os4unix3net8listener12UnixListener10take_error17he0620e4596d9464fE@Base 3.2.0
 _ZN3std2os4unix3net8listener12UnixListener15set_nonblocking17h212448a065e9a847E@Base 3.2.0
 _ZN3std2os4unix3net8listener12UnixListener6accept17he5c60bb666352489E@Base 3.2.0
 _ZN3std2os4unix3net8listener12UnixListener8incoming17h4b42d956260b1348E@Base 3.2.0
 _ZN3std2os4unix3net8listener12UnixListener9bind_addr17he33d3fefcb55208fE@Base 3.2.0
 _ZN3std2os4unix3net8listener12UnixListener9try_clone17h8ac02330a6282090E@Base 3.2.0
 _ZN3std2os4unix3net9ancillary10SocketCred3new17h5b42d069663ff4cbE@Base 3.2.0
 _ZN3std2os4unix3net9ancillary10SocketCred7get_gid17h66dfcfe715b5e59fE@Base 3.2.0
 _ZN3std2os4unix3net9ancillary10SocketCred7get_pid17h8482b91ac0252f36E@Base 3.2.0
 _ZN3std2os4unix3net9ancillary10SocketCred7get_uid17hf562956fe5139b90E@Base 3.2.0
 _ZN3std2os4unix3net9ancillary10SocketCred7set_gid17hee6f1a2f0bb39aa4E@Base 3.2.0
 _ZN3std2os4unix3net9ancillary10SocketCred7set_pid17hbdd6d9e3fbea9350E@Base 3.2.0
 _ZN3std2os4unix3net9ancillary10SocketCred7set_uid17hf889c22ad3832a57E@Base 3.2.0
 _ZN3std2os4unix3net9ancillary15SocketAncillary3len17h10cf25245668e28bE@Base 3.2.0
 _ZN3std2os4unix3net9ancillary15SocketAncillary3new17hc71d44e85271b53fE@Base 3.2.0
 _ZN3std2os4unix3net9ancillary15SocketAncillary5clear17h7915aecdeb1cec3eE@Base 3.2.0
 _ZN3std2os4unix3net9ancillary15SocketAncillary7add_fds17hb1bed2e1619409caE@Base 3.2.0
 _ZN3std2os4unix3net9ancillary15SocketAncillary8capacity17h42286a2becd9235fE@Base 3.2.0
 _ZN3std2os4unix3net9ancillary15SocketAncillary8is_empty17ha1c17f18d53fbf0aE@Base 3.2.0
 _ZN3std2os4unix3net9ancillary15SocketAncillary8messages17h5beb362d754176d6E@Base 3.2.0
 _ZN3std2os4unix3net9ancillary15SocketAncillary9add_creds17h149a36524102554fE@Base 3.2.0
 _ZN3std2os4unix3net9ancillary15SocketAncillary9truncated17h7678fd311cbd4761E@Base 3.2.0
 _ZN3std2os4unix3net9ancillary31send_vectored_with_ancillary_to17h6bda246a0bfd03e7E@Base 3.2.0
 _ZN3std2os4unix5ucred10impl_linux9peer_cred17hb6082d659401a2cdE@Base 3.2.0
 _ZN3std2os4unix7process9parent_id17h6e511483ffab6ccbE@Base 3.2.0
 _ZN3std2os5linux7process115_$LT$impl$u20$core..convert..From$LT$std..os..linux..process..PidFd$GT$$u20$for$u20$std..os..fd..owned..OwnedFd$GT$4from17h8c20cd9103674a03E@Base 3.2.0
 _ZN3std2rt19lang_start_internal17hc0334fb93260c39cE@Base 3.2.0
 _ZN3std3env11_remove_var17he08b82150b458519E@Base 3.2.0
 _ZN3std3env11current_dir17hc85ece5a263debfbE@Base 3.2.0
 _ZN3std3env11current_exe17h4317a3fb19b7a825E@Base 3.2.0
 _ZN3std3env4_var17h896fc356efd44577E@Base 3.2.0
 _ZN3std3env4args17h4d6c0550420680e1E@Base 3.2.0
 _ZN3std3env4vars17h5828bce48e25206eE@Base 3.2.0
 _ZN3std3env7_var_os17hb926b708a4e3001dE@Base 3.2.0
 _ZN3std3env7args_os17he97ca3dfdca3827dE@Base 3.2.0
 _ZN3std3env7vars_os17h230e6a34798771d5E@Base 3.2.0
 _ZN3std3env8_set_var17h54d8edf84beb2977E@Base 3.2.0
 _ZN3std3env8home_dir17hb59837bed43c94f4E@Base 3.2.0
 _ZN3std3env8temp_dir17he861cbcc64f9bab9E@Base 3.2.0
 _ZN3std3ffi5c_str104_$LT$impl$u20$core..convert..From$LT$std..ffi..c_str..NulError$GT$$u20$for$u20$std..io..error..Error$GT$4from17heed3d3d8c7b904e3E@Base 3.2.0
 _ZN3std3ffi5c_str129_$LT$impl$u20$core..convert..From$LT$$RF$std..ffi..c_str..CStr$GT$$u20$for$u20$alloc..boxed..Box$LT$std..ffi..c_str..CStr$GT$$GT$4from17h5e111702ad62d5d0E@Base 3.2.0
 _ZN3std3ffi5c_str15IntoStringError10utf8_error17h5b4024a07b37f0ceE@Base 3.2.0
 _ZN3std3ffi5c_str15IntoStringError12into_cstring17hd661fb72fea82ee1E@Base 3.2.0
 _ZN3std3ffi5c_str19FromVecWithNulError10into_bytes17h99c85d43293416deE@Base 3.2.0
 _ZN3std3ffi5c_str19FromVecWithNulError8as_bytes17h0ab8f34382c014aeE@Base 3.2.0
 _ZN3std3ffi5c_str4CStr13into_c_string17h4b100cf542e717f3E@Base 3.2.0
 _ZN3std3ffi5c_str4CStr15to_string_lossy17h28523951d52db8fdE@Base 3.2.0
 _ZN3std3ffi5c_str4CStr19from_bytes_with_nul17h5db1c02ed4442670E@Base 3.2.0
 _ZN3std3ffi5c_str4CStr20from_bytes_until_nul17h4bdff13098c869e8E@Base 3.2.0
 _ZN3std3ffi5c_str4CStr6to_str17he41f096d6a93f3f0E@Base 3.2.0
 _ZN3std3ffi5c_str7CString10into_bytes17h0bc8118df7a64a2bE@Base 3.2.0
 _ZN3std3ffi5c_str7CString11into_string17hb93a9f909580b423E@Base 3.2.0
 _ZN3std3ffi5c_str7CString16into_boxed_c_str17h963762a564296205E@Base 3.2.0
 _ZN3std3ffi5c_str7CString17from_vec_with_nul17ha7a86ee3367c3c28E@Base 3.2.0
 _ZN3std3ffi5c_str7CString18from_vec_unchecked17h32dc009843b0cbf0E@Base 3.2.0
 _ZN3std3ffi5c_str7CString19_from_vec_unchecked17h1009dee788a2d0bbE@Base 3.2.0
 _ZN3std3ffi5c_str7CString19into_bytes_with_nul17ha78f5bb97f09001cE@Base 3.2.0
 _ZN3std3ffi5c_str7CString27from_vec_with_nul_unchecked17hec5e0588c876a551E@Base 3.2.0
 _ZN3std3ffi5c_str7CString8from_raw17h01e5a6f8ca2757a7E@Base 3.2.0
 _ZN3std3ffi5c_str8NulError12nul_position17h8ebdd9d7e76ae5ddE@Base 3.2.0
 _ZN3std3ffi5c_str8NulError8into_vec17h4f6af92ef0dc3c98E@Base 3.2.0
 _ZN3std3ffi5c_str99_$LT$impl$u20$core..default..Default$u20$for$u20$alloc..boxed..Box$LT$std..ffi..c_str..CStr$GT$$GT$7default17ha1408e7d48c42659E@Base 3.2.0
 _ZN3std3ffi6os_str5OsStr14into_os_string17hc91999d27d8b4406E@Base 3.2.0
 _ZN3std3ffi6os_str5OsStr18to_ascii_lowercase17hfd2b1b5bef2ea704E@Base 3.2.0
 _ZN3std3ffi6os_str5OsStr18to_ascii_uppercase17h9d2f491e4be702ebE@Base 3.2.0
 _ZN3std3ffi6os_str8OsString17into_boxed_os_str17h038a6e49f488224cE@Base 3.2.0
 _ZN3std3net3tcp11TcpListener10local_addr17h6a031bf88592803fE@Base 3.2.0
 _ZN3std3net3tcp11TcpListener10take_error17hd9bc6d73bd631e24E@Base 3.2.0
 _ZN3std3net3tcp11TcpListener11set_only_v617hd396c05051900559E@Base 3.2.0
 _ZN3std3net3tcp11TcpListener13into_incoming17hcc92a9489bbe8cb8E@Base 3.2.0
 _ZN3std3net3tcp11TcpListener15set_nonblocking17h3cfa30744cc36c4bE@Base 3.2.0
 _ZN3std3net3tcp11TcpListener3ttl17h7bd8dc82b5d2aac6E@Base 3.2.0
 _ZN3std3net3tcp11TcpListener6accept17h63889c0bfd90f61bE@Base 3.2.0
 _ZN3std3net3tcp11TcpListener7only_v617hf0e3cfbdab2540b2E@Base 3.2.0
 _ZN3std3net3tcp11TcpListener7set_ttl17h1de92a4caa5f2b20E@Base 3.2.0
 _ZN3std3net3tcp11TcpListener8incoming17hcec70beef5bc515dE@Base 3.2.0
 _ZN3std3net3tcp11TcpListener9try_clone17h6b39643703333ad4E@Base 3.2.0
 _ZN3std3net3tcp9TcpStream10local_addr17h342e8864625c4e43E@Base 3.2.0
 _ZN3std3net3tcp9TcpStream10set_linger17h91d2a7814f9230deE@Base 3.2.0
 _ZN3std3net3tcp9TcpStream10take_error17hee2a76714b96564fE@Base 3.2.0
 _ZN3std3net3tcp9TcpStream11set_nodelay17he908ae2b14a54c0eE@Base 3.2.0
 _ZN3std3net3tcp9TcpStream12read_timeout17h9749febab6f9fcbdE@Base 3.2.0
 _ZN3std3net3tcp9TcpStream13write_timeout17hef657bcea4006e0cE@Base 3.2.0
 _ZN3std3net3tcp9TcpStream15connect_timeout17hdf6277f107659ed0E@Base 3.2.0
 _ZN3std3net3tcp9TcpStream15set_nonblocking17hde27cbdee3c37051E@Base 3.2.0
 _ZN3std3net3tcp9TcpStream16set_read_timeout17h41956252b8a27f92E@Base 3.2.0
 _ZN3std3net3tcp9TcpStream17set_write_timeout17h8a6eb7efb4124302E@Base 3.2.0
 _ZN3std3net3tcp9TcpStream3ttl17h5306775caf01c192E@Base 3.2.0
 _ZN3std3net3tcp9TcpStream4peek17h4aa925a0288f32a9E@Base 3.2.0
 _ZN3std3net3tcp9TcpStream6linger17h51c15887d8a83532E@Base 3.2.0
 _ZN3std3net3tcp9TcpStream7nodelay17hb55925a8006d67c6E@Base 3.2.0
 _ZN3std3net3tcp9TcpStream7set_ttl17h30cba235b122566fE@Base 3.2.0
 _ZN3std3net3tcp9TcpStream8shutdown17hc0f418e2420ebb73E@Base 3.2.0
 _ZN3std3net3tcp9TcpStream9peer_addr17h0515b0c686afafb3E@Base 3.2.0
 _ZN3std3net3tcp9TcpStream9try_clone17h161144cb4a175834E@Base 3.2.0
 _ZN3std3net3udp9UdpSocket10local_addr17h954d3e91680f8664E@Base 3.2.0
 _ZN3std3net3udp9UdpSocket10take_error17hf0883cfcd5fff29dE@Base 3.2.0
 _ZN3std3net3udp9UdpSocket12read_timeout17h86f4a62a89339bbbE@Base 3.2.0
 _ZN3std3net3udp9UdpSocket13set_broadcast17h3d01aa0c53e42641E@Base 3.2.0
 _ZN3std3net3udp9UdpSocket13write_timeout17h0bb3fb740337f326E@Base 3.2.0
 _ZN3std3net3udp9UdpSocket15set_nonblocking17h2fd7dcc55a8e4107E@Base 3.2.0
 _ZN3std3net3udp9UdpSocket16multicast_ttl_v417h708b09c5c4aa5e59E@Base 3.2.0
 _ZN3std3net3udp9UdpSocket16set_read_timeout17h575df47c000dc1feE@Base 3.2.0
 _ZN3std3net3udp9UdpSocket17join_multicast_v417h713bebd7b3a02939E@Base 3.2.0
 _ZN3std3net3udp9UdpSocket17join_multicast_v617h645c7317ce757bc0E@Base 3.2.0
 _ZN3std3net3udp9UdpSocket17multicast_loop_v417hc32e454b7eae8b1fE@Base 3.2.0
 _ZN3std3net3udp9UdpSocket17multicast_loop_v617h3b23a2fa8b6f2f58E@Base 3.2.0
 _ZN3std3net3udp9UdpSocket17set_write_timeout17h8a14277fea8ee4b8E@Base 3.2.0
 _ZN3std3net3udp9UdpSocket18leave_multicast_v417h63310e96fbbfaabfE@Base 3.2.0
 _ZN3std3net3udp9UdpSocket18leave_multicast_v617h2f3aa51a341d72efE@Base 3.2.0
 _ZN3std3net3udp9UdpSocket20set_multicast_ttl_v417h89e0f29167d6a40cE@Base 3.2.0
 _ZN3std3net3udp9UdpSocket21set_multicast_loop_v417h6c266abcb170f263E@Base 3.2.0
 _ZN3std3net3udp9UdpSocket21set_multicast_loop_v617hb786dd7a71ac9ffbE@Base 3.2.0
 _ZN3std3net3udp9UdpSocket3ttl17h53c0208d1a7a5b4dE@Base 3.2.0
 _ZN3std3net3udp9UdpSocket4peek17h042e4bc15b135127E@Base 3.2.0
 _ZN3std3net3udp9UdpSocket4recv17h2bb694b274ec44b2E@Base 3.2.0
 _ZN3std3net3udp9UdpSocket4send17habce79e6e80fe345E@Base 3.2.0
 _ZN3std3net3udp9UdpSocket7set_ttl17ha56554f1f0f12e1dE@Base 3.2.0
 _ZN3std3net3udp9UdpSocket9broadcast17hb68888e11b64dfd7E@Base 3.2.0
 _ZN3std3net3udp9UdpSocket9peek_from17hcdd71e32de3ba2daE@Base 3.2.0
 _ZN3std3net3udp9UdpSocket9peer_addr17ha5051c770f78f8b9E@Base 3.2.0
 _ZN3std3net3udp9UdpSocket9recv_from17ha1edc0eecf71f3e8E@Base 3.2.0
 _ZN3std3net3udp9UdpSocket9try_clone17h5cdcdf6498b8a9a2E@Base 3.2.0
 _ZN3std3net4addr10SocketAddr2ip17hc64e112ba8dae89bE@Base 3.2.0
 _ZN3std3net4addr10SocketAddr3new17hd5432fdb9ca8930eE@Base 3.2.0
 _ZN3std3net4addr10SocketAddr4port17h0ece18d0c6bd406eE@Base 3.2.0
 _ZN3std3net4addr10SocketAddr6set_ip17h4e320dd27b197415E@Base 3.2.0
 _ZN3std3net4addr10SocketAddr7is_ipv417h92c5dba74d9e6d96E@Base 3.2.0
 _ZN3std3net4addr10SocketAddr7is_ipv617heb080218ebb9ec62E@Base 3.2.0
 _ZN3std3net4addr10SocketAddr8set_port17hb255dfa1b629bb70E@Base 3.2.0
 _ZN3std3net4addr12SocketAddrV42ip17hf836c0ecfe1f53bbE@Base 3.2.0
 _ZN3std3net4addr12SocketAddrV43new17h7313eb139f0838dbE@Base 3.2.0
 _ZN3std3net4addr12SocketAddrV44port17heb37c4c3caea2ab1E@Base 3.2.0
 _ZN3std3net4addr12SocketAddrV46set_ip17h96aa82717370ff2eE@Base 3.2.0
 _ZN3std3net4addr12SocketAddrV48set_port17h2f3935f8ad0716bfE@Base 3.2.0
 _ZN3std3net4addr12SocketAddrV612set_flowinfo17h22365262b11c1babE@Base 3.2.0
 _ZN3std3net4addr12SocketAddrV612set_scope_id17h0461e48fcaaaa553E@Base 3.2.0
 _ZN3std3net4addr12SocketAddrV62ip17ha2c1b1517103d871E@Base 3.2.0
 _ZN3std3net4addr12SocketAddrV63new17h6e1405ab1dda1279E@Base 3.2.0
 _ZN3std3net4addr12SocketAddrV64port17h64898cd44215587dE@Base 3.2.0
 _ZN3std3net4addr12SocketAddrV66set_ip17h212394a1c48cf695E@Base 3.2.0
 _ZN3std3net4addr12SocketAddrV68flowinfo17h1d3c98288a8c6d4aE@Base 3.2.0
 _ZN3std3net4addr12SocketAddrV68scope_id17hee63f5925e5cfc39E@Base 3.2.0
 _ZN3std3net4addr12SocketAddrV68set_port17hbc23b1e87e80a487E@Base 3.2.0
 _ZN3std3net6parser77_$LT$impl$u20$core..str..traits..FromStr$u20$for$u20$std..net..ip..IpAddr$GT$8from_str17ha9786b99b69f9e27E@Base 3.2.0
 _ZN3std3net6parser79_$LT$impl$u20$core..str..traits..FromStr$u20$for$u20$std..net..ip..Ipv4Addr$GT$8from_str17h2150af7b6fa8d6cdE@Base 3.2.0
 _ZN3std3net6parser79_$LT$impl$u20$core..str..traits..FromStr$u20$for$u20$std..net..ip..Ipv6Addr$GT$8from_str17hf800a95dc69a4363E@Base 3.2.0
 _ZN3std3net6parser83_$LT$impl$u20$core..str..traits..FromStr$u20$for$u20$std..net..addr..SocketAddr$GT$8from_str17h8283ad37dff4cd1cE@Base 3.2.0
 _ZN3std3net6parser85_$LT$impl$u20$core..str..traits..FromStr$u20$for$u20$std..net..addr..SocketAddrV4$GT$8from_str17h2267b304e3e43d8fE@Base 3.2.0
 _ZN3std3net6parser85_$LT$impl$u20$core..str..traits..FromStr$u20$for$u20$std..net..addr..SocketAddrV6$GT$8from_str17hb0f33d1b5b2ebca4E@Base 3.2.0
 _ZN3std3sys4unix11kernel_copy15sendfile_splice17he9e37a53e0b8b023E@Base 3.2.0
 _ZN3std3sys4unix11kernel_copy18copy_regular_files17h3dbc24cbeb7bb193E@Base 3.2.0
 _ZN3std3sys4unix11kernel_copy6FdMeta10maybe_fifo17h3347a7b0a373109cE@Base 3.2.0
 _ZN3std3sys4unix11kernel_copy6FdMeta25copy_file_range_candidate17h4ef010edbef3d49bE@Base 3.2.0
 _ZN3std3sys4unix11kernel_copy6FdMeta25potential_sendfile_source17h081987c39bdb767bE@Base 3.2.0
 _ZN3std3sys4unix14abort_internal17h0d233f317961b6b0E@Base 3.2.0
 _ZN3std3sys4unix17decode_error_kind17hf519f30e3850bd1eE@Base 3.2.0
 _ZN3std3sys4unix17thread_local_dtor13register_dtor17h94bbab6742da9622E@Base 3.2.0
 _ZN3std3sys4unix2fd8FileDesc11get_cloexec17hbc94edae268b4228E@Base 3.2.0
 _ZN3std3sys4unix2fd8FileDesc11read_to_end17hf6d7ccc0e34af719E@Base 3.2.0
 _ZN3std3sys4unix2fd8FileDesc11set_cloexec17h07c8f2da45377763E@Base 3.2.0
 _ZN3std3sys4unix2fd8FileDesc13read_vectored17h4a4b429e3922131bE@Base 3.2.0
 _ZN3std3sys4unix2fd8FileDesc14write_vectored17h61ce2dd8c1444a12E@Base 3.2.0
 _ZN3std3sys4unix2fd8FileDesc15set_nonblocking17h420c1a5eb6bfeda6E@Base 3.2.0
 _ZN3std3sys4unix2fd8FileDesc4read17h3eba19fd9fae0b07E@Base 3.2.0
 _ZN3std3sys4unix2fd8FileDesc5write17h8a8108c58471db10E@Base 3.2.0
 _ZN3std3sys4unix2fd8FileDesc7read_at17h03aa65eead2f1dc2E@Base 3.2.0
 _ZN3std3sys4unix2fd8FileDesc8read_buf17h89991494f03dbb16E@Base 3.2.0
 _ZN3std3sys4unix2fd8FileDesc8write_at17h5c3041a4a0e2a9beE@Base 3.2.0
 _ZN3std3sys4unix2fs12canonicalize17hdc566fc4370f0faeE@Base 3.2.0
 _ZN3std3sys4unix2fs15remove_dir_impl14remove_dir_all17h5b8dbb4267773e3dE@Base 3.2.0
 _ZN3std3sys4unix2fs4copy17h4f08dbfeeaca33dbE@Base 3.2.0
 _ZN3std3sys4unix2fs4link17h2fa7fa27f13b76c2E@Base 3.2.0
 _ZN3std3sys4unix2fs4stat17h2acdec69a79e7b8aE@Base 3.2.0
 _ZN3std3sys4unix2fs5chown17h5625a48323f9f57bE@Base 3.2.0
 _ZN3std3sys4unix2fs5lstat17h767e544a7dc82665E@Base 3.2.0
 _ZN3std3sys4unix2fs5rmdir17h21865b8e44232183E@Base 3.2.0
 _ZN3std3sys4unix2fs6chroot17hba1eab8f95f676efE@Base 3.2.0
 _ZN3std3sys4unix2fs6fchown17h575980b57f91e250E@Base 3.2.0
 _ZN3std3sys4unix2fs6lchown17h28240a8ee1013296E@Base 3.2.0
 _ZN3std3sys4unix2fs6rename17h1b93430b6d82a900E@Base 3.2.0
 _ZN3std3sys4unix2fs6unlink17hb6b2531d76d892d5E@Base 3.2.0
 _ZN3std3sys4unix2fs7readdir17h4e63acdf6a51ce48E@Base 3.2.0
 _ZN3std3sys4unix2fs7symlink17h07f729a9f0eec914E@Base 3.2.0
 _ZN3std3sys4unix2fs8readlink17h49acda3c7183524bE@Base 3.2.0
 _ZN3std3sys4unix2fs8set_perm17hb57a09492c7193fdE@Base 3.2.0
 _ZN3std3sys4unix2os11split_paths17h61e18b4d1e341763E@Base 3.2.0
 _ZN3std3sys4unix2os5chdir17h006c2403617f6c26E@Base 3.2.0
 _ZN3std3sys4unix2os5errno17hc0bc4d0c06a56cf5E@Base 3.2.0
 _ZN3std3sys4unix3net6Socket7new_raw17h0512676b14b99526E@Base 3.2.0
 _ZN3std3sys4unix4path8absolute17hacccccd074164d58E@Base 3.2.0
 _ZN3std3sys4unix4rand19hashmap_random_keys17h2df888fc3eec724fE@Base 3.2.0
 _ZN3std3sys4unix4time8Timespec4zero17h1fe681b998e150b9E@Base 3.2.0
 _ZN3std3sys4unix5futex10futex_wake17h6a322fa2f9383d6bE@Base 3.2.0
 _ZN3std3sys4unix5locks15pthread_condvar7Condvar12wait_timeout17he42296ac1a5c4827E@Base 3.2.0
 _ZN3std3sys4unix5locks15pthread_remutex14ReentrantMutex6unlock17h4f1879a7af7475e1E@Base 3.2.0
 _ZN3std3sys4unix5locks15pthread_remutex14ReentrantMutex7destroy17hbf7400db92768f1bE@Base 3.2.0
 _ZN3std3sys4unix5stdio12panic_output17hfc436ae7fde85f65E@Base 3.2.0
 _ZN3std3sys4unix5stdio6Stderr3new17h47bb94b5d7638431E@Base 3.2.0
 _ZN3std3sys4unix6memchr6memchr17he56c273798843d6bE@Base 3.2.0
 _ZN3std3sys4unix6memchr7memrchr17h738cd23ff9481697E@Base 3.2.0
 _ZN3std3sys4unix6os_str3Buf10push_slice17h9c5c726d355eba94E@Base 3.2.0
 _ZN3std3sys4unix6os_str3Buf11from_string17hcc5709ce8b570cf6E@Base 3.2.0
 _ZN3std3sys4unix6os_str3Buf11into_string17hd6440b336610aef2E@Base 3.2.0
 _ZN3std3sys4unix6os_str5Slice10clone_into17h570133302c254c28E@Base 3.2.0
 _ZN3std3sys4unix6os_str5Slice15to_string_lossy17h31a04d0ccc2cdeb1E@Base 3.2.0
 _ZN3std3sys4unix6os_str5Slice6to_str17h85fd2d9eef561387E@Base 3.2.0
 _ZN3std3sys4unix6os_str5Slice8to_owned17h991b29e412b3180dE@Base 3.2.0
 _ZN3std3sys4unix6os_str5Slice9empty_box17hfd4cb8099302f5c0E@Base 3.2.0
 _ZN3std3sys4unix6thread5guard7current17h6355b0c27208b308E@Base 3.2.0
 _ZN3std3sys4unix6thread6Thread2id17h09ba90c93cbc84c5E@Base 3.2.0
 _ZN3std3sys4unix6thread6Thread3new17haf599227f7edccf9E@Base 3.2.0
 _ZN3std3sys4unix6thread6Thread4join17h9d5d881aa2dd4f5dE@Base 3.2.0
 _ZN3std3sys4unix6thread6Thread7into_id17h558bc2fa8dc0dce0E@Base 3.2.0
 _ZN3std3sys4unix6thread6Thread8set_name17h22da4d4f67c76959E@Base 3.2.0
 _ZN3std3sys4unix7process13process_inner83_$LT$impl$u20$std..os..linux..process..ChildExt$u20$for$u20$std..process..Child$GT$10take_pidfd17ha8834dadb56efc14E@Base 3.2.0
 _ZN3std3sys4unix7process13process_inner83_$LT$impl$u20$std..os..linux..process..ChildExt$u20$for$u20$std..process..Child$GT$5pidfd17h428821c52b8e7e4fE@Base 3.2.0
 _ZN3std3sys4unix7process14process_common7Command3arg17h32229b1b1a89fa1cE@Base 3.2.0
 _ZN3std3sys4unix7process14process_common7Command3cwd17hc4a365b8b3308bc0E@Base 3.2.0
 _ZN3std3sys4unix7process14process_common7Command3new17h85022da8218b30ebE@Base 3.2.0
 _ZN3std3sys4unix7process14process_common7Command5stdin17h9aeaac7009433d9fE@Base 3.2.0
 _ZN3std3sys4unix7process14process_common7Command6stderr17ha4f27cdc0f38e859E@Base 3.2.0
 _ZN3std3sys4unix7process14process_common7Command6stdout17hbf826a212610ef87E@Base 3.2.0
 _ZN3std3sys4unix7process14process_common7Command7env_mut17h0ce9fda3a8b8696bE@Base 3.2.0
 _ZN3std3sys4unix7process14process_common7Command8pre_exec17he356b45f0e52be97E@Base 3.2.0
 _ZN3std3sys4unix7process14process_common7Command9set_arg_017h4b5946cd19239a10E@Base 3.2.0
 _ZN3std3sys6common5alloc16realloc_fallback17he0bfcdf78f726de7E@Base 3.2.0
 _ZN3std4path10Components7as_path17h0478b84440843cb1E@Base 3.2.0
 _ZN3std4path10Components8has_root17h0660c44e50ae2e63E@Base 3.2.0
 _ZN3std4path117_$LT$impl$u20$core..convert..From$LT$$RF$std..path..Path$GT$$u20$for$u20$alloc..boxed..Box$LT$std..path..Path$GT$$GT$4from17h30ea299899b36888E@Base 3.2.0
 _ZN3std4path12is_separator17hd5cf49907d8b9fe7E@Base 3.2.0
 _ZN3std4path18compare_components17he8e4f249780d838eE@Base 3.2.0
 _ZN3std4path4Path10_ends_with17hd4aab1f047c88888E@Base 3.2.0
 _ZN3std4path4Path10components17hbc1b5ea8fa1ab1ecE@Base 3.2.0
 _ZN3std4path4Path10is_symlink17h1ac831bf86bafd82E@Base 3.2.0
 _ZN3std4path4Path11as_u8_slice17had9398358478c433E@Base 3.2.0
 _ZN3std4path4Path11file_prefix17haffdfb4099a7f50fE@Base 3.2.0
 _ZN3std4path4Path11is_absolute17h484a1f5938d21c92E@Base 3.2.0
 _ZN3std4path4Path11to_path_buf17h772c60557d88259dE@Base 3.2.0
 _ZN3std4path4Path12_starts_with17hb03a5615d9dfbeb3E@Base 3.2.0
 _ZN3std4path4Path13_strip_prefix17h17efbf49d6147787E@Base 3.2.0
 _ZN3std4path4Path13into_path_buf17h546c5b3e98c38f5aE@Base 3.2.0
 _ZN3std4path4Path15_with_extension17h73b207e977a82652E@Base 3.2.0
 _ZN3std4path4Path15_with_file_name17h71017ae15e3f3da9E@Base 3.2.0
 _ZN3std4path4Path5_join17h100d52083b7707a6E@Base 3.2.0
 _ZN3std4path4Path6is_dir17hb88af8695eff5a89E@Base 3.2.0
 _ZN3std4path4Path6parent17h5ae14255021c7dcdE@Base 3.2.0
 _ZN3std4path4Path7is_file17h82d853578cd24418E@Base 3.2.0
 _ZN3std4path4Path9extension17h2bdf0ccd4dd0d6e3E@Base 3.2.0
 _ZN3std4path4Path9file_name17hf95c7d5384757bbeE@Base 3.2.0
 _ZN3std4path4Path9file_stem17h7d6d8d6424c52429E@Base 3.2.0
 _ZN3std4path6Prefix3len10os_str_len17h9633f72e909dd340E@Base 3.2.0
 _ZN3std4path7PathBuf14_set_extension17h9964eb8d24d983d0E@Base 3.2.0
 _ZN3std4path7PathBuf14_set_file_name17h4ad4e4df831c5543E@Base 3.2.0
 _ZN3std4path7PathBuf3pop17h74f45c24ec1f4a81E@Base 3.2.0
 _ZN3std4path7PathBuf5_push17he4dc195028a824c7E@Base 3.2.0
 _ZN3std4path9Component9as_os_str17h742108d60ac5bc50E@Base 3.2.0
 _ZN3std4sync4mpsc4sync5Queue7dequeue17h2e57981728ca972bE@Base 3.2.0
 _ZN3std4sync4mpsc4sync5Queue7enqueue17hec97db630e63325dE@Base 3.2.0
 _ZN3std4sync4mpsc8blocking11SignalToken6signal17h9ccc33f985bae2a5E@Base 3.2.0
 _ZN3std4sync4mpsc8blocking6tokens17h1302f748ae41b686E@Base 3.2.0
 _ZN3std4sync4mpsc8blocking9WaitToken14wait_max_until17hef560598fcc740d3E@Base 3.2.0
 _ZN3std4sync4mpsc8blocking9WaitToken4wait17h83fe157e2f649f9aE@Base 3.2.0
 _ZN3std4sync4once4Once10call_inner17hf2cc5355ceb23158E@Base 3.2.0
 _ZN3std4sync4once9OnceState11is_poisoned17h09e5787415312f1cE@Base 3.2.0
 _ZN3std4sync4once9OnceState6poison17h9c54c4e0536a6b82E@Base 3.2.0
 _ZN3std4sync6poison4Flag3new17h96c77ddd6e3a2516E@Base 3.2.0
 _ZN3std4sync7barrier17BarrierWaitResult9is_leader17h79f79e998c9553d3E@Base 3.2.0
 _ZN3std4sync7barrier7Barrier3new17hdb6ab9080bb3e6d4E@Base 3.2.0
 _ZN3std4sync7barrier7Barrier4wait17h965870f054999228E@Base 3.2.0
 _ZN3std4sync7condvar17WaitTimeoutResult9timed_out17hba3e7122ad301755E@Base 3.2.0
 _ZN3std4sync7condvar7Condvar10notify_all17h31c8e7a3dcb8c59bE@Base 3.2.0
 _ZN3std4sync7condvar7Condvar10notify_one17h96b42fdc1cf721fdE@Base 3.2.0
 _ZN3std4sync7condvar7Condvar3new17h4d1867d970b1d422E@Base 3.2.0
 _ZN3std4time10SystemTime11checked_add17h528103f490c44da1E@Base 3.2.0
 _ZN3std4time10SystemTime11checked_sub17hde00c030d3b5a3c6E@Base 3.2.0
 _ZN3std4time10SystemTime14duration_since17h61e26f6dc9a09a87E@Base 3.2.0
 _ZN3std4time10SystemTime3now17hd3751a8cc6935609E@Base 3.2.0
 _ZN3std4time10SystemTime7elapsed17h9a3a776ee9cb8461E@Base 3.2.0
 _ZN3std4time15SystemTimeError8duration17h5daeecad8cd51294E@Base 3.2.0
 _ZN3std4time7Instant11checked_add17h91760c07746d97a6E@Base 3.2.0
 _ZN3std4time7Instant11checked_sub17h6120c20862309f36E@Base 3.2.0
 _ZN3std4time7Instant14duration_since17h3f218a50a9d57e6cE@Base 3.2.0
 _ZN3std4time7Instant22checked_duration_since17h10b5bf1e98bba005E@Base 3.2.0
 _ZN3std4time7Instant25saturating_duration_since17hc4e34d2d8e9da854E@Base 3.2.0
 _ZN3std4time7Instant3now17h567f6c093e9ce1f7E@Base 3.2.0
 _ZN3std4time7Instant7elapsed17hd2fa6ce7662fad53E@Base 3.2.0
 _ZN3std5alloc20set_alloc_error_hook17h5912d58443597a0fE@Base 3.2.0
 _ZN3std5alloc21take_alloc_error_hook17h53048ddf09980e78E@Base 3.2.0
 _ZN3std5error115_$LT$impl$u20$core..convert..From$LT$$RF$str$GT$$u20$for$u20$alloc..boxed..Box$LT$dyn$u20$std..error..Error$GT$$GT$4from17h28270af6ba53c4efE@Base 3.2.0
 _ZN3std5error129_$LT$impl$u20$core..convert..From$LT$alloc..string..String$GT$$u20$for$u20$alloc..boxed..Box$LT$dyn$u20$std..error..Error$GT$$GT$4from17h36ce7a4ad8651ecfE@Base 3.2.0
 _ZN3std5error137_$LT$impl$u20$core..convert..From$LT$alloc..borrow..Cow$LT$str$GT$$GT$$u20$for$u20$alloc..boxed..Box$LT$dyn$u20$std..error..Error$GT$$GT$4from17hd95d853b49c531f5E@Base 3.2.0
 _ZN3std5error183_$LT$impl$u20$core..convert..From$LT$alloc..borrow..Cow$LT$str$GT$$GT$$u20$for$u20$alloc..boxed..Box$LT$dyn$u20$std..error..Error$u2b$core..marker..Sync$u2b$core..marker..Send$GT$$GT$4from17hbfa383c4cd478a1dE@Base 3.2.0
 _ZN3std5panic12always_abort17h01fb6ef52e365db4E@Base 3.2.0
 _ZN3std5panic13resume_unwind17h708deba363280871E@Base 3.2.0
 _ZN3std5panic19get_backtrace_style17h62a03d1448e5adbbE@Base 3.2.0
 _ZN3std5panic19set_backtrace_style17hd8606512c05cddfdE@Base 3.2.0
 _ZN3std6thread12park_timeout17hb6145f5861036c22E@Base 3.2.0
 _ZN3std6thread15park_timeout_ms17h86884d9abf65e85dE@Base 3.2.0
 _ZN3std6thread21available_parallelism17hfbdb777575c79bb9E@Base 3.2.0
 _ZN3std6thread4park17hb1dd3a093f59bc0aE@Base 3.2.0
 _ZN3std6thread5sleep17h4d6952b0a9e1b74aE@Base 3.2.0
 _ZN3std6thread6Thread2id17h409bb41d28a667d9E@Base 3.2.0
 _ZN3std6thread6Thread3new17ha1af0943c88e1f46E@Base 3.2.0
 _ZN3std6thread6Thread4name17h565ddf3b52f4e216E@Base 3.2.0
 _ZN3std6thread6Thread5cname17hd26c05787fc94131E@Base 3.2.0
 _ZN3std6thread6scoped9ScopeData29decrement_num_running_threads17h6c1d024d4f0d24aaE@Base 3.2.0
 _ZN3std6thread6scoped9ScopeData29increment_num_running_threads17h1983102cc9cd09cdE@Base 3.2.0
 _ZN3std6thread7Builder10stack_size17hf51feda5db453363E@Base 3.2.0
 _ZN3std6thread7Builder3new17h085258f3d5434620E@Base 3.2.0
 _ZN3std6thread7Builder4name17hb6c9c8125ea86e5cE@Base 3.2.0
 _ZN3std6thread7current17h38a4964658fba71fE@Base 3.2.0
 _ZN3std6thread8ThreadId6as_u6417h530c40524f7700e7E@Base 3.2.0
 _ZN3std6thread8sleep_ms17hd319636e48a073bfE@Base 3.2.0
 _ZN3std6thread9yield_now17h80b245051f2c6593E@Base 3.2.0
 _ZN3std7process10ExitStatus4code17hb3e5841de37994d8E@Base 3.2.0
 _ZN3std7process10ExitStatus7exit_ok17ha7ea1f33928d094cE@Base 3.2.0
 _ZN3std7process10ExitStatus7success17h862f29dd5e643a62E@Base 3.2.0
 _ZN3std7process15ExitStatusError11into_status17hd499e5ceeff080f9E@Base 3.2.0
 _ZN3std7process15ExitStatusError12code_nonzero17ha05683b1c66df642E@Base 3.2.0
 _ZN3std7process15ExitStatusError4code17hbbcc2515e72e8f1bE@Base 3.2.0
 _ZN3std7process2id17h7e58f796d9c09538E@Base 3.2.0
 _ZN3std7process4exit17h2bb8f8c125472885E@Base 3.2.0
 _ZN3std7process5Child16wait_with_output17h16b024988a8972e9E@Base 3.2.0
 _ZN3std7process5Child2id17h3ceb9cb6febd0834E@Base 3.2.0
 _ZN3std7process5Child4kill17h477c101b10469313E@Base 3.2.0
 _ZN3std7process5Child4wait17h071baf3c42790db3E@Base 3.2.0
 _ZN3std7process5Child8try_wait17hf5d91ff621721faaE@Base 3.2.0
 _ZN3std7process5Stdio4null17h3ed17cbae81165eaE@Base 3.2.0
 _ZN3std7process5Stdio5piped17hcb48f312d70ed24fE@Base 3.2.0
 _ZN3std7process5Stdio7inherit17h41e4149dfaacc5b2E@Base 3.2.0
 _ZN3std7process5abort17h6f48a213a0f6465bE@Base 3.2.0
 _ZN3std7process7Command11get_program17hc959b2dd61990d3aE@Base 3.2.0
 _ZN3std7process7Command15get_current_dir17he4768ba259a7217bE@Base 3.2.0
 _ZN3std7process7Command5spawn17h605ef35db78125bbE@Base 3.2.0
 _ZN3std7process7Command6output17hb0436ea5c877c2f7E@Base 3.2.0
 _ZN3std7process7Command6status17h39ff96c8e14ff01fE@Base 3.2.0
 _ZN3std7process7Command8get_args17hec41d81c3e39f135E@Base 3.2.0
 _ZN3std7process7Command8get_envs17h49a7eda3e9c1e41eE@Base 3.2.0
 _ZN3std7process7Command9env_clear17h36cc338c37fef60cE@Base 3.2.0
 _ZN3std9backtrace9Backtrace13force_capture17h008ffb18085d0452E@Base 3.2.0
 _ZN3std9backtrace9Backtrace6frames17hdaa51fdc8887fbd6E@Base 3.2.0
 _ZN3std9backtrace9Backtrace6status17h1980e2c0302e8ceeE@Base 3.2.0
 _ZN3std9backtrace9Backtrace7capture17h659a2dca6ea49d20E@Base 3.2.0
 _ZN3std9backtrace9Backtrace8disabled17h8e7ca560137a1ea6E@Base 3.2.0
 _ZN3std9panicking11panic_count16set_always_abort17h4d3dcf1d9aa76a5eE@Base 3.2.0
 _ZN3std9panicking11panic_count17is_zero_slow_path17h4bd5e91a69eb818aE@Base 3.2.0
 _ZN3std9panicking11panic_count18GLOBAL_PANIC_COUNT17h87041bf5e3b73fe8E@Base 3.2.0
 _ZN3std9panicking11panic_count8decrease17h5e40df748b059ee8E@Base 3.2.0
 _ZN3std9panicking11panic_count8increase17hcf851f3081b97c3cE@Base 3.2.0
 _ZN3std9panicking11panic_count9get_count17h62ebf400dc477bbcE@Base 3.2.0
 _ZN3std9panicking12default_hook17h55d1b442cdeef376E@Base 3.2.0
 _ZN3std9panicking20rust_panic_with_hook17h7207bfb38d7a9be9E@Base 3.2.0
 _ZN3std9panicking3try7cleanup17h3eded4302c59cf01E@Base 3.2.0
 _ZN3std9panicking4HOOK17h85a6b34d1f11239bE@Base 3.2.0
 _ZN3std9panicking8set_hook17h2b4ffeb6a7a47443E@Base 3.2.0
 _ZN3std9panicking9HOOK_LOCK17hd550f142b23507e9E@Base 3.2.0
 _ZN3std9panicking9take_hook17he173c5e82a17903aE@Base 3.2.0
 _ZN40_$LT$str$u20$as$u20$core..fmt..Debug$GT$3fmt17h52f35bf5786d92d9E@Base 3.2.0
 _ZN41_$LT$char$u20$as$u20$core..fmt..Debug$GT$3fmt17h864b1c2adee3a7e0E@Base 3.2.0
 _ZN42_$LT$$u21$$u20$as$u20$core..fmt..Debug$GT$3fmt17ha88d5253f6195478E@Base 3.2.0
 _ZN42_$LT$str$u20$as$u20$core..fmt..Display$GT$3fmt17hf838b01e3b53e00aE@Base 3.2.0
 _ZN43_$LT$bool$u20$as$u20$core..fmt..Display$GT$3fmt17h6c0dfa32d5289c5fE@Base 3.2.0
 _ZN43_$LT$char$u20$as$u20$core..fmt..Display$GT$3fmt17h9fe87fd4e08c6fadE@Base 3.2.0
 _ZN44_$LT$$u21$$u20$as$u20$core..fmt..Display$GT$3fmt17ha8eb4d5910a4143cE@Base 3.2.0
 _ZN47_$LT$std..fs..File$u20$as$u20$std..io..Read$GT$11read_to_end17h8cba5cfdbbb7d1bdE@Base 3.2.0
 _ZN47_$LT$std..fs..File$u20$as$u20$std..io..Read$GT$13read_vectored17h16ec9a1e98bfeeacE@Base 3.2.0
 _ZN47_$LT$std..fs..File$u20$as$u20$std..io..Read$GT$14read_to_string17h43fce984a8248a63E@Base 3.2.0
 _ZN47_$LT$std..fs..File$u20$as$u20$std..io..Read$GT$4read17habdab34e12f4225dE@Base 3.2.0
 _ZN47_$LT$std..fs..File$u20$as$u20$std..io..Read$GT$8read_buf17h2e2bcf746fe972b7E@Base 3.2.0
 _ZN47_$LT$std..fs..File$u20$as$u20$std..io..Seek$GT$4seek17hb95cc4fc11fb50edE@Base 3.2.0
 _ZN48_$LT$std..fs..File$u20$as$u20$std..io..Write$GT$14write_vectored17h6c7e35fcb032ed9bE@Base 3.2.0
 _ZN48_$LT$std..fs..File$u20$as$u20$std..io..Write$GT$5flush17h0a836d92cf513679E@Base 3.2.0
 _ZN48_$LT$std..fs..File$u20$as$u20$std..io..Write$GT$5write17h6b23e2e34f63504dE@Base 3.2.0
 _ZN49_$LT$i8$u20$as$u20$core..fmt..num..DisplayInt$GT$4zero17h65e1740aaf0bc2f2E@Base 3.2.0
 _ZN49_$LT$i8$u20$as$u20$core..fmt..num..DisplayInt$GT$5to_u817h75473f3b880001fcE@Base 3.2.0
 _ZN49_$LT$i8$u20$as$u20$core..fmt..num..DisplayInt$GT$6to_u1617h87edac15d2c51e45E@Base 3.2.0
 _ZN49_$LT$i8$u20$as$u20$core..fmt..num..DisplayInt$GT$6to_u3217ha1c836d9c9011e61E@Base 3.2.0
 _ZN49_$LT$i8$u20$as$u20$core..fmt..num..DisplayInt$GT$6to_u6417h7f6e7cd2e938cd0cE@Base 3.2.0
 _ZN49_$LT$i8$u20$as$u20$core..fmt..num..DisplayInt$GT$7from_u817h775f50e03e5a5106E@Base 3.2.0
 _ZN49_$LT$i8$u20$as$u20$core..fmt..num..DisplayInt$GT$7to_u12817hfd2fdaf71734e3b8E@Base 3.2.0
 _ZN49_$LT$i8$u20$as$u20$std..sys..unix..IsMinusOne$GT$12is_minus_one17h5756d9d447a007d1E@Base 3.2.0
 _ZN49_$LT$u8$u20$as$u20$core..fmt..num..DisplayInt$GT$4zero17h782fe5149f3c9a6dE@Base 3.2.0
 _ZN49_$LT$u8$u20$as$u20$core..fmt..num..DisplayInt$GT$5to_u817h1d2568187e8b3277E@Base 3.2.0
 _ZN49_$LT$u8$u20$as$u20$core..fmt..num..DisplayInt$GT$6to_u1617h7bd4948e79661dcdE@Base 3.2.0
 _ZN49_$LT$u8$u20$as$u20$core..fmt..num..DisplayInt$GT$6to_u3217h57bdf6d69371dffbE@Base 3.2.0
 _ZN49_$LT$u8$u20$as$u20$core..fmt..num..DisplayInt$GT$6to_u6417h67590136f494997cE@Base 3.2.0
 _ZN49_$LT$u8$u20$as$u20$core..fmt..num..DisplayInt$GT$7from_u817h74e05e6fc0b4c84dE@Base 3.2.0
 _ZN49_$LT$u8$u20$as$u20$core..fmt..num..DisplayInt$GT$7to_u12817hb0eb676526a1f897E@Base 3.2.0
 _ZN49_$LT$u8$u20$as$u20$core..num..bignum..FullOps$GT$12full_div_rem17h0f0177acff892530E@Base 3.2.0
 _ZN49_$LT$u8$u20$as$u20$core..num..bignum..FullOps$GT$12full_mul_add17hec3bfdbb5c024184E@Base 3.2.0
 _ZN4core10intrinsics11write_bytes8comptime17h03471257711b1bfdE@Base 3.2.0
 _ZN4core10intrinsics19copy_nonoverlapping8comptime17hfe0cd4f83f30723fE@Base 3.2.0
 _ZN4core10intrinsics4copy8comptime17h5a608ca15d54923cE@Base 3.2.0
 _ZN4core3cmp5impls50_$LT$impl$u20$core..cmp..Ord$u20$for$u20$$u21$$GT$3cmp17h88958f157050d5d5E@Base 3.2.0
 _ZN4core3cmp5impls56_$LT$impl$u20$core..cmp..PartialEq$u20$for$u20$$u21$$GT$2eq17hdabf88681c88bb9aE@Base 3.2.0
 _ZN4core3cmp5impls57_$LT$impl$u20$core..cmp..PartialOrd$u20$for$u20$$u21$$GT$11partial_cmp17h46d496d748c452a6E@Base 3.2.0
 _ZN4core3f3221_$LT$impl$u20$f32$GT$8classify17h88abe7c25a4225b5E@Base 3.2.0
 _ZN4core3f6421_$LT$impl$u20$f64$GT$8classify17h21446e8e364e5c0aE@Base 3.2.0
 _ZN4core3fmt10ArgumentV110from_usize17hd317c92ad4d9856cE@Base 3.2.0
 _ZN4core3fmt12USIZE_MARKER17h6cc226e67539da1eE@Base 3.2.0
 _ZN4core3fmt3num3imp51_$LT$impl$u20$core..fmt..Display$u20$for$u20$i8$GT$3fmt17h0b66fd29a279fe6cE@Base 3.2.0
 _ZN4core3fmt3num3imp51_$LT$impl$u20$core..fmt..Display$u20$for$u20$u8$GT$3fmt17hfcd90f896d313c9dE@Base 3.2.0
 _ZN4core3fmt3num3imp52_$LT$impl$u20$core..fmt..Display$u20$for$u20$i16$GT$3fmt17h03efc926327cc8d8E@Base 3.2.0
 _ZN4core3fmt3num3imp52_$LT$impl$u20$core..fmt..Display$u20$for$u20$i32$GT$3fmt17h0e9286e23bceb751E@Base 3.2.0
 _ZN4core3fmt3num3imp52_$LT$impl$u20$core..fmt..Display$u20$for$u20$i64$GT$3fmt17hcafc6bbbb2fab7caE@Base 3.2.0
 _ZN4core3fmt3num3imp52_$LT$impl$u20$core..fmt..Display$u20$for$u20$u16$GT$3fmt17hcc416173913a9038E@Base 3.2.0
 _ZN4core3fmt3num3imp52_$LT$impl$u20$core..fmt..Display$u20$for$u20$u32$GT$3fmt17hd6c4a5c06c27b85cE@Base 3.2.0
 _ZN4core3fmt3num3imp52_$LT$impl$u20$core..fmt..Display$u20$for$u20$u64$GT$3fmt17h0ef6983915616446E@Base 3.2.0
 _ZN4core3fmt3num3imp52_$LT$impl$u20$core..fmt..LowerExp$u20$for$u20$i8$GT$3fmt17h5ab63a0234d6e270E@Base 3.2.0
 _ZN4core3fmt3num3imp52_$LT$impl$u20$core..fmt..LowerExp$u20$for$u20$u8$GT$3fmt17hab77038774dd4f0eE@Base 3.2.0
 _ZN4core3fmt3num3imp52_$LT$impl$u20$core..fmt..UpperExp$u20$for$u20$i8$GT$3fmt17hc32cf2e914420e59E@Base 3.2.0
 _ZN4core3fmt3num3imp52_$LT$impl$u20$core..fmt..UpperExp$u20$for$u20$u8$GT$3fmt17hcf28748fdc081c22E@Base 3.2.0
 _ZN4core3fmt3num3imp53_$LT$impl$u20$core..fmt..LowerExp$u20$for$u20$i16$GT$3fmt17h34cd88ecf6bc52f1E@Base 3.2.0
 _ZN4core3fmt3num3imp53_$LT$impl$u20$core..fmt..LowerExp$u20$for$u20$i32$GT$3fmt17h839206e2fdd3efbaE@Base 3.2.0
 _ZN4core3fmt3num3imp53_$LT$impl$u20$core..fmt..LowerExp$u20$for$u20$i64$GT$3fmt17h5097b57c65022838E@Base 3.2.0
 _ZN4core3fmt3num3imp53_$LT$impl$u20$core..fmt..LowerExp$u20$for$u20$u16$GT$3fmt17h4b3832abd27a5905E@Base 3.2.0
 _ZN4core3fmt3num3imp53_$LT$impl$u20$core..fmt..LowerExp$u20$for$u20$u32$GT$3fmt17h372cbd0f4a6de892E@Base 3.2.0
 _ZN4core3fmt3num3imp53_$LT$impl$u20$core..fmt..LowerExp$u20$for$u20$u64$GT$3fmt17h3cd12893bba52896E@Base 3.2.0
 _ZN4core3fmt3num3imp53_$LT$impl$u20$core..fmt..UpperExp$u20$for$u20$i16$GT$3fmt17h572a41bc01b7df35E@Base 3.2.0
 _ZN4core3fmt3num3imp53_$LT$impl$u20$core..fmt..UpperExp$u20$for$u20$i32$GT$3fmt17hf9158bef2c4ba838E@Base 3.2.0
 _ZN4core3fmt3num3imp53_$LT$impl$u20$core..fmt..UpperExp$u20$for$u20$i64$GT$3fmt17h3e3cab3cdeaeda7bE@Base 3.2.0
 _ZN4core3fmt3num3imp53_$LT$impl$u20$core..fmt..UpperExp$u20$for$u20$u16$GT$3fmt17ha04657c7c4de4449E@Base 3.2.0
 _ZN4core3fmt3num3imp53_$LT$impl$u20$core..fmt..UpperExp$u20$for$u20$u32$GT$3fmt17h26de1d20aaa38a4bE@Base 3.2.0
 _ZN4core3fmt3num3imp53_$LT$impl$u20$core..fmt..UpperExp$u20$for$u20$u64$GT$3fmt17hb759c84cd1cd855eE@Base 3.2.0
 _ZN4core3fmt3num3imp54_$LT$impl$u20$core..fmt..Display$u20$for$u20$isize$GT$3fmt17h4d2d5fa418935ba7E@Base 3.2.0
 _ZN4core3fmt3num3imp54_$LT$impl$u20$core..fmt..Display$u20$for$u20$usize$GT$3fmt17hee2b8e062d39d8afE@Base 3.2.0
 _ZN4core3fmt3num3imp55_$LT$impl$u20$core..fmt..LowerExp$u20$for$u20$isize$GT$3fmt17h86a2bfd3358ee5e5E@Base 3.2.0
 _ZN4core3fmt3num3imp55_$LT$impl$u20$core..fmt..LowerExp$u20$for$u20$usize$GT$3fmt17had913fc8e0dd5f4bE@Base 3.2.0
 _ZN4core3fmt3num3imp55_$LT$impl$u20$core..fmt..UpperExp$u20$for$u20$isize$GT$3fmt17h4c56fdf3bb47873aE@Base 3.2.0
 _ZN4core3fmt3num3imp55_$LT$impl$u20$core..fmt..UpperExp$u20$for$u20$usize$GT$3fmt17h635d2b3dbd71d49dE@Base 3.2.0
 _ZN4core3fmt3num49_$LT$impl$u20$core..fmt..Octal$u20$for$u20$i8$GT$3fmt17hadce2cca8dd9fe29E@Base 3.2.0
 _ZN4core3fmt3num49_$LT$impl$u20$core..fmt..Octal$u20$for$u20$u8$GT$3fmt17hb7b986bc4d55146aE@Base 3.2.0
 _ZN4core3fmt3num50_$LT$impl$u20$core..fmt..Binary$u20$for$u20$i8$GT$3fmt17hdb898ab07d43d590E@Base 3.2.0
 _ZN4core3fmt3num50_$LT$impl$u20$core..fmt..Binary$u20$for$u20$u8$GT$3fmt17hbaa0c4c5e08b6153E@Base 3.2.0
 _ZN4core3fmt3num50_$LT$impl$u20$core..fmt..Octal$u20$for$u20$i16$GT$3fmt17h81c368c620c3e30fE@Base 3.2.0
 _ZN4core3fmt3num50_$LT$impl$u20$core..fmt..Octal$u20$for$u20$i32$GT$3fmt17hd99d23f4bb4e4a12E@Base 3.2.0
 _ZN4core3fmt3num50_$LT$impl$u20$core..fmt..Octal$u20$for$u20$i64$GT$3fmt17h12dd8f37ea709514E@Base 3.2.0
 _ZN4core3fmt3num50_$LT$impl$u20$core..fmt..Octal$u20$for$u20$u16$GT$3fmt17hc661fc55a82353c0E@Base 3.2.0
 _ZN4core3fmt3num50_$LT$impl$u20$core..fmt..Octal$u20$for$u20$u32$GT$3fmt17ha477b2927b0f2858E@Base 3.2.0
 _ZN4core3fmt3num50_$LT$impl$u20$core..fmt..Octal$u20$for$u20$u64$GT$3fmt17he3b87319f67f1b1cE@Base 3.2.0
 _ZN4core3fmt3num51_$LT$impl$u20$core..fmt..Binary$u20$for$u20$i16$GT$3fmt17he6bc78ffd3bd65abE@Base 3.2.0
 _ZN4core3fmt3num51_$LT$impl$u20$core..fmt..Binary$u20$for$u20$i32$GT$3fmt17h5f9d6ae1adeebc3bE@Base 3.2.0
 _ZN4core3fmt3num51_$LT$impl$u20$core..fmt..Binary$u20$for$u20$i64$GT$3fmt17h58ee615dc113d392E@Base 3.2.0
 _ZN4core3fmt3num51_$LT$impl$u20$core..fmt..Binary$u20$for$u20$u16$GT$3fmt17h09c98063960dc636E@Base 3.2.0
 _ZN4core3fmt3num51_$LT$impl$u20$core..fmt..Binary$u20$for$u20$u32$GT$3fmt17h02a38bf3506398c6E@Base 3.2.0
 _ZN4core3fmt3num51_$LT$impl$u20$core..fmt..Binary$u20$for$u20$u64$GT$3fmt17h5efcdc9baa627c13E@Base 3.2.0
 _ZN4core3fmt3num51_$LT$impl$u20$core..fmt..Octal$u20$for$u20$i128$GT$3fmt17h8be521a0fceef6aaE@Base 3.2.0
 _ZN4core3fmt3num51_$LT$impl$u20$core..fmt..Octal$u20$for$u20$u128$GT$3fmt17h9bcc273d5438a46dE@Base 3.2.0
 _ZN4core3fmt3num52_$LT$impl$u20$core..fmt..Binary$u20$for$u20$i128$GT$3fmt17h691a300bd2bbf8c3E@Base 3.2.0
 _ZN4core3fmt3num52_$LT$impl$u20$core..fmt..Binary$u20$for$u20$u128$GT$3fmt17hc22fc3729905b290E@Base 3.2.0
 _ZN4core3fmt3num52_$LT$impl$u20$core..fmt..LowerHex$u20$for$u20$i8$GT$3fmt17h3a66da0ed510555bE@Base 3.2.0
 _ZN4core3fmt3num52_$LT$impl$u20$core..fmt..LowerHex$u20$for$u20$u8$GT$3fmt17h2ebf57310a918269E@Base 3.2.0
 _ZN4core3fmt3num52_$LT$impl$u20$core..fmt..Octal$u20$for$u20$isize$GT$3fmt17h67e3c74980687392E@Base 3.2.0
 _ZN4core3fmt3num52_$LT$impl$u20$core..fmt..Octal$u20$for$u20$usize$GT$3fmt17hd22b22aaec5ac5e4E@Base 3.2.0
 _ZN4core3fmt3num52_$LT$impl$u20$core..fmt..UpperHex$u20$for$u20$i8$GT$3fmt17hc763577e79034d2fE@Base 3.2.0
 _ZN4core3fmt3num52_$LT$impl$u20$core..fmt..UpperHex$u20$for$u20$u8$GT$3fmt17h7a72b499b85ca6abE@Base 3.2.0
 _ZN4core3fmt3num53_$LT$impl$u20$core..fmt..Binary$u20$for$u20$isize$GT$3fmt17h543954d6741812c1E@Base 3.2.0
 _ZN4core3fmt3num53_$LT$impl$u20$core..fmt..Binary$u20$for$u20$usize$GT$3fmt17h288d3215fa4512c4E@Base 3.2.0
 _ZN4core3fmt3num53_$LT$impl$u20$core..fmt..Display$u20$for$u20$i128$GT$3fmt17hd3250f3a1388bdedE@Base 3.2.0
 _ZN4core3fmt3num53_$LT$impl$u20$core..fmt..Display$u20$for$u20$u128$GT$3fmt17hde65081397443ecbE@Base 3.2.0
 _ZN4core3fmt3num53_$LT$impl$u20$core..fmt..LowerHex$u20$for$u20$i16$GT$3fmt17hd35b38021633ae18E@Base 3.2.0
 _ZN4core3fmt3num53_$LT$impl$u20$core..fmt..LowerHex$u20$for$u20$i32$GT$3fmt17ha5aab2a6032ca91aE@Base 3.2.0
 _ZN4core3fmt3num53_$LT$impl$u20$core..fmt..LowerHex$u20$for$u20$i64$GT$3fmt17h9ef732b9e14e165aE@Base 3.2.0
 _ZN4core3fmt3num53_$LT$impl$u20$core..fmt..LowerHex$u20$for$u20$u16$GT$3fmt17h047b065c2248842eE@Base 3.2.0
 _ZN4core3fmt3num53_$LT$impl$u20$core..fmt..LowerHex$u20$for$u20$u32$GT$3fmt17h105cd26a354bfd78E@Base 3.2.0
 _ZN4core3fmt3num53_$LT$impl$u20$core..fmt..LowerHex$u20$for$u20$u64$GT$3fmt17hc3a9864a7a057928E@Base 3.2.0
 _ZN4core3fmt3num53_$LT$impl$u20$core..fmt..UpperHex$u20$for$u20$i16$GT$3fmt17hce45a811c62d97a9E@Base 3.2.0
 _ZN4core3fmt3num53_$LT$impl$u20$core..fmt..UpperHex$u20$for$u20$i32$GT$3fmt17ha4a3554027b66aefE@Base 3.2.0
 _ZN4core3fmt3num53_$LT$impl$u20$core..fmt..UpperHex$u20$for$u20$i64$GT$3fmt17h4fbc7225956445fbE@Base 3.2.0
 _ZN4core3fmt3num53_$LT$impl$u20$core..fmt..UpperHex$u20$for$u20$u16$GT$3fmt17hd667d5f207157034E@Base 3.2.0
 _ZN4core3fmt3num53_$LT$impl$u20$core..fmt..UpperHex$u20$for$u20$u32$GT$3fmt17hd89b7cfaec19dbf0E@Base 3.2.0
 _ZN4core3fmt3num53_$LT$impl$u20$core..fmt..UpperHex$u20$for$u20$u64$GT$3fmt17h3286ae4575da617dE@Base 3.2.0
 _ZN4core3fmt3num54_$LT$impl$u20$core..fmt..LowerExp$u20$for$u20$i128$GT$3fmt17h02bf69ba129404e5E@Base 3.2.0
 _ZN4core3fmt3num54_$LT$impl$u20$core..fmt..LowerExp$u20$for$u20$u128$GT$3fmt17hb64ec019d0de8cabE@Base 3.2.0
 _ZN4core3fmt3num54_$LT$impl$u20$core..fmt..LowerHex$u20$for$u20$i128$GT$3fmt17h22d36ab3222072eeE@Base 3.2.0
 _ZN4core3fmt3num54_$LT$impl$u20$core..fmt..LowerHex$u20$for$u20$u128$GT$3fmt17h2f8a5265a602ee4eE@Base 3.2.0
 _ZN4core3fmt3num54_$LT$impl$u20$core..fmt..UpperExp$u20$for$u20$i128$GT$3fmt17h2f75a3b891c7a109E@Base 3.2.0
 _ZN4core3fmt3num54_$LT$impl$u20$core..fmt..UpperExp$u20$for$u20$u128$GT$3fmt17h900776a66a82826cE@Base 3.2.0
 _ZN4core3fmt3num54_$LT$impl$u20$core..fmt..UpperHex$u20$for$u20$i128$GT$3fmt17hbc4df5dcf57c8dc6E@Base 3.2.0
 _ZN4core3fmt3num54_$LT$impl$u20$core..fmt..UpperHex$u20$for$u20$u128$GT$3fmt17h4ee65ffb3d34d29dE@Base 3.2.0
 _ZN4core3fmt3num55_$LT$impl$u20$core..fmt..LowerHex$u20$for$u20$isize$GT$3fmt17hcb6663dc0d459d48E@Base 3.2.0
 _ZN4core3fmt3num55_$LT$impl$u20$core..fmt..LowerHex$u20$for$u20$usize$GT$3fmt17hcb3947f48f963804E@Base 3.2.0
 _ZN4core3fmt3num55_$LT$impl$u20$core..fmt..UpperHex$u20$for$u20$isize$GT$3fmt17h8aa7f4a082477e97E@Base 3.2.0
 _ZN4core3fmt3num55_$LT$impl$u20$core..fmt..UpperHex$u20$for$u20$usize$GT$3fmt17hc24c9b8d1ae80389E@Base 3.2.0
 _ZN4core3fmt5float50_$LT$impl$u20$core..fmt..Debug$u20$for$u20$f32$GT$3fmt17h414dfffebcd9f349E@Base 3.2.0
 _ZN4core3fmt5float50_$LT$impl$u20$core..fmt..Debug$u20$for$u20$f64$GT$3fmt17h31b0b8d4de2a5461E@Base 3.2.0
 _ZN4core3fmt5float52_$LT$impl$u20$core..fmt..Display$u20$for$u20$f32$GT$3fmt17ha5e6c8dedd3420f0E@Base 3.2.0
 _ZN4core3fmt5float52_$LT$impl$u20$core..fmt..Display$u20$for$u20$f64$GT$3fmt17h8b1757e7c9165cddE@Base 3.2.0
 _ZN4core3fmt5float53_$LT$impl$u20$core..fmt..LowerExp$u20$for$u20$f32$GT$3fmt17ha5499f463cc61020E@Base 3.2.0
 _ZN4core3fmt5float53_$LT$impl$u20$core..fmt..LowerExp$u20$for$u20$f64$GT$3fmt17h3412063f42e727c8E@Base 3.2.0
 _ZN4core3fmt5float53_$LT$impl$u20$core..fmt..UpperExp$u20$for$u20$f32$GT$3fmt17hcfeb05533c3cad8bE@Base 3.2.0
 _ZN4core3fmt5float53_$LT$impl$u20$core..fmt..UpperExp$u20$for$u20$f64$GT$3fmt17h9a656d965fd3fbaeE@Base 3.2.0
 _ZN4core3fmt5write17h90daa079fb880be4E@Base 3.2.0
 _ZN4core3fmt8builders10DebugTuple5field17hb514fba4f182ce86E@Base 3.2.0
 _ZN4core3fmt8builders10DebugTuple6finish17h3df6337610a7b961E@Base 3.2.0
 _ZN4core3fmt8builders11DebugStruct21finish_non_exhaustive17he53ea68846bd1aabE@Base 3.2.0
 _ZN4core3fmt8builders11DebugStruct5field17hd8ec86c6344dc4fbE@Base 3.2.0
 _ZN4core3fmt8builders11DebugStruct6finish17hba2e3aae16ee4310E@Base 3.2.0
 _ZN4core3fmt8builders8DebugMap3key17ha70ebd8cb3c50d85E@Base 3.2.0
 _ZN4core3fmt8builders8DebugMap5entry17ha8184f46c26283a9E@Base 3.2.0
 _ZN4core3fmt8builders8DebugMap5value17h976af8b2ee9b231eE@Base 3.2.0
 _ZN4core3fmt8builders8DebugMap6finish17h9fe8017c60106cf7E@Base 3.2.0
 _ZN4core3fmt8builders8DebugSet5entry17h679f0f04818a6b56E@Base 3.2.0
 _ZN4core3fmt8builders8DebugSet6finish17hcd7576bb91c769b1E@Base 3.2.0
 _ZN4core3fmt8builders9DebugList5entry17haec48b533aa6303cE@Base 3.2.0
 _ZN4core3fmt8builders9DebugList6finish17h2d5c894452a24f2dE@Base 3.2.0
 _ZN4core3fmt9Formatter10debug_list17hdaf6e5ffaf22a351E@Base 3.2.0
 _ZN4core3fmt9Formatter10sign_minus17h05dbc03a54873bccE@Base 3.2.0
 _ZN4core3fmt9Formatter11debug_tuple17he27bf4b1e2889f62E@Base 3.2.0
 _ZN4core3fmt9Formatter12debug_struct17hf132e26c70d49fa9E@Base 3.2.0
 _ZN4core3fmt9Formatter12pad_integral17h5ddf4d566b7f3a02E@Base 3.2.0
 _ZN4core3fmt9Formatter15debug_lower_hex17heb1815301be6769bE@Base 3.2.0
 _ZN4core3fmt9Formatter15debug_upper_hex17h010a83d0aeda9982E@Base 3.2.0
 _ZN4core3fmt9Formatter19sign_aware_zero_pad17h9289b159c9a10ef2E@Base 3.2.0
 _ZN4core3fmt9Formatter3new17ha5efb78fc05068e6E@Base 3.2.0
 _ZN4core3fmt9Formatter3pad17hd853c5c07c9be463E@Base 3.2.0
 _ZN4core3fmt9Formatter4fill17h45693ca24225667dE@Base 3.2.0
 _ZN4core3fmt9Formatter5align17hfbdbe45af20ff7c2E@Base 3.2.0
 _ZN4core3fmt9Formatter5flags17h31370cfc2f3bc8a7E@Base 3.2.0
 _ZN4core3fmt9Formatter5width17h32ba2c5a25e913abE@Base 3.2.0
 _ZN4core3fmt9Formatter9alternate17h634e1db933788e61E@Base 3.2.0
 _ZN4core3fmt9Formatter9debug_map17h44c4065a16ec845eE@Base 3.2.0
 _ZN4core3fmt9Formatter9debug_set17h8e3e992f1f4c67d5E@Base 3.2.0
 _ZN4core3fmt9Formatter9precision17h0352146f3ec9e1b4E@Base 3.2.0
 _ZN4core3fmt9Formatter9sign_plus17h7570b8d58e5846d1E@Base 3.2.0
 _ZN4core3fmt9Formatter9write_fmt17h4c4a39ca626ece07E@Base 3.2.0
 _ZN4core3fmt9Formatter9write_str17h8b19715fd8cabc73E@Base 3.2.0
 _ZN4core3num20_$LT$impl$u20$i8$GT$14from_str_radix17hf29fd5daeb4d25caE@Base 3.2.0
 _ZN4core3num20_$LT$impl$u20$u8$GT$14from_str_radix17h5d5a39f44839cd01E@Base 3.2.0
 _ZN4core3num21_$LT$impl$u20$i16$GT$14from_str_radix17hc048da8d4ee11d60E@Base 3.2.0
 _ZN4core3num21_$LT$impl$u20$i32$GT$14from_str_radix17h92196f1b6fad1314E@Base 3.2.0
 _ZN4core3num21_$LT$impl$u20$i64$GT$14from_str_radix17ha0033040f4243cdeE@Base 3.2.0
 _ZN4core3num21_$LT$impl$u20$u16$GT$14from_str_radix17h155fb20f252c2b97E@Base 3.2.0
 _ZN4core3num21_$LT$impl$u20$u32$GT$14from_str_radix17h5e7d84351bcb7dfdE@Base 3.2.0
 _ZN4core3num21_$LT$impl$u20$u64$GT$14from_str_radix17h383808495e150da3E@Base 3.2.0
 _ZN4core3num22_$LT$impl$u20$i128$GT$14from_str_radix17h8039f6a65cf96f10E@Base 3.2.0
 _ZN4core3num22_$LT$impl$u20$u128$GT$14from_str_radix17h13ce556775ed73bcE@Base 3.2.0
 _ZN4core3num23_$LT$impl$u20$isize$GT$14from_str_radix17h569153ed32613c68E@Base 3.2.0
 _ZN4core3num23_$LT$impl$u20$usize$GT$14from_str_radix17h410c458131e795b1E@Base 3.2.0
 _ZN4core3num3fmt4Part3len17h74592d3738e21d90E@Base 3.2.0
 _ZN4core3num3fmt4Part5write17h1eee7daf67059ab4E@Base 3.2.0
 _ZN4core3num3fmt9Formatted3len17h0a23917383635886E@Base 3.2.0
 _ZN4core3num3fmt9Formatted5write17h6b624bb081fefc7fE@Base 3.2.0
 _ZN4core3num59_$LT$impl$u20$core..str..traits..FromStr$u20$for$u20$i8$GT$8from_str17h800dc6e465c22d4dE@Base 3.2.0
 _ZN4core3num59_$LT$impl$u20$core..str..traits..FromStr$u20$for$u20$u8$GT$8from_str17h377e29b1c262cbc8E@Base 3.2.0
 _ZN4core3num5error13ParseIntError13__description17hd4f327db1be6d2ecE@Base 3.2.0
 _ZN4core3num5error13ParseIntError4kind17h97da3020a212748eE@Base 3.2.0
 _ZN4core3num5error15TryFromIntError13__description17he971445dfc3dfb10E@Base 3.2.0
 _ZN4core3num60_$LT$impl$u20$core..str..traits..FromStr$u20$for$u20$i16$GT$8from_str17hd8e9107a1d74475fE@Base 3.2.0
 _ZN4core3num60_$LT$impl$u20$core..str..traits..FromStr$u20$for$u20$i32$GT$8from_str17h344cdd7fd8ab36a7E@Base 3.2.0
 _ZN4core3num60_$LT$impl$u20$core..str..traits..FromStr$u20$for$u20$i64$GT$8from_str17h04492339be81738cE@Base 3.2.0
 _ZN4core3num60_$LT$impl$u20$core..str..traits..FromStr$u20$for$u20$u16$GT$8from_str17h243dc486afdf2f2bE@Base 3.2.0
 _ZN4core3num60_$LT$impl$u20$core..str..traits..FromStr$u20$for$u20$u32$GT$8from_str17hd5ba8dc3cc30df6dE@Base 3.2.0
 _ZN4core3num60_$LT$impl$u20$core..str..traits..FromStr$u20$for$u20$u64$GT$8from_str17h177f8f6cdb7fe08bE@Base 3.2.0
 _ZN4core3num61_$LT$impl$u20$core..str..traits..FromStr$u20$for$u20$i128$GT$8from_str17h37966889f116830cE@Base 3.2.0
 _ZN4core3num61_$LT$impl$u20$core..str..traits..FromStr$u20$for$u20$u128$GT$8from_str17he9bd3c68629b8636E@Base 3.2.0
 _ZN4core3num62_$LT$impl$u20$core..str..traits..FromStr$u20$for$u20$isize$GT$8from_str17h2c967b5080e7f008E@Base 3.2.0
 _ZN4core3num62_$LT$impl$u20$core..str..traits..FromStr$u20$for$u20$usize$GT$8from_str17ha63bf7a38473189dE@Base 3.2.0
 _ZN4core3num6bignum5tests6Big8x310bit_length17hcbcfe76157305913E@Base 3.2.0
 _ZN4core3num6bignum5tests6Big8x310from_small17he99a846f15e48e73E@Base 3.2.0
 _ZN4core3num6bignum5tests6Big8x310mul_digits17h4e9afce350c876beE@Base 3.2.0
 _ZN4core3num6bignum5tests6Big8x313div_rem_small17he0322cc8e0683606E@Base 3.2.0
 _ZN4core3num6bignum5tests6Big8x33add17h72f7fdd80a7cbe7bE@Base 3.2.0
 _ZN4core3num6bignum5tests6Big8x33sub17h7b6a21442a874b29E@Base 3.2.0
 _ZN4core3num6bignum5tests6Big8x36digits17he39bf4aaf9543caeE@Base 3.2.0
 _ZN4core3num6bignum5tests6Big8x37div_rem17h6b4def9483f50f24E@Base 3.2.0
 _ZN4core3num6bignum5tests6Big8x37get_bit17hbdb6bb5403d9aab5E@Base 3.2.0
 _ZN4core3num6bignum5tests6Big8x37is_zero17hdecc2fa5d5c859b9E@Base 3.2.0
 _ZN4core3num6bignum5tests6Big8x38from_u6417h27605eefffa41a2cE@Base 3.2.0
 _ZN4core3num6bignum5tests6Big8x38mul_pow217h20b42712489594dcE@Base 3.2.0
 _ZN4core3num6bignum5tests6Big8x38mul_pow517h760dda6a3d250cf5E@Base 3.2.0
 _ZN4core3num6bignum5tests6Big8x39add_small17haa17f5240326163dE@Base 3.2.0
 _ZN4core3num6bignum5tests6Big8x39mul_small17habf11442c4774bd3E@Base 3.2.0
 _ZN4core3num6bignum8Big32x4010bit_length17he07f23315e695320E@Base 3.2.0
 _ZN4core3num6bignum8Big32x4010from_small17h7506084cff16500cE@Base 3.2.0
 _ZN4core3num6bignum8Big32x4010mul_digits17h90bfa24403076caaE@Base 3.2.0
 _ZN4core3num6bignum8Big32x4013div_rem_small17hc765f065a01a497cE@Base 3.2.0
 _ZN4core3num6bignum8Big32x403add17h0bc7bc2c56d8f66cE@Base 3.2.0
 _ZN4core3num6bignum8Big32x403sub17hc01cbfeaff0f7eb9E@Base 3.2.0
 _ZN4core3num6bignum8Big32x406digits17h0d7dafd49ee618acE@Base 3.2.0
 _ZN4core3num6bignum8Big32x407div_rem17hd2b2e2e5547f35e7E@Base 3.2.0
 _ZN4core3num6bignum8Big32x407get_bit17hc49254cbb5b3dc8dE@Base 3.2.0
 _ZN4core3num6bignum8Big32x407is_zero17h4f31365333fdc47fE@Base 3.2.0
 _ZN4core3num6bignum8Big32x408from_u6417hb3fe6f90808c85beE@Base 3.2.0
 _ZN4core3num6bignum8Big32x408mul_pow217h0cbc383cb1ed691fE@Base 3.2.0
 _ZN4core3num6bignum8Big32x408mul_pow517h8ae1ce9ca27a0367E@Base 3.2.0
 _ZN4core3num6bignum8Big32x409add_small17hc5f8610fefbec79aE@Base 3.2.0
 _ZN4core3num6bignum8Big32x409mul_small17h03ebe4d33bd90977E@Base 3.2.0
 _ZN4core3num7dec2flt11pfe_invalid17h3867f3f09b2b7e67E@Base 3.2.0
 _ZN4core3num7dec2flt15ParseFloatError13__description17h4420aef3d3614334E@Base 3.2.0
 _ZN4core3num7dec2flt5parse12parse_number17h50ac4491eae2cc32E@Base 3.2.0
 _ZN4core3num7dec2flt5parse21parse_partial_inf_nan14parse_inf_rest17h32a88db25d44abaeE@Base 3.2.0
 _ZN4core3num7dec2flt6common8BiasedFp9zero_pow217hbd175ef803c08423E@Base 3.2.0
 _ZN4core3num7dec2flt6lemire22compute_product_approx17h8f5fe3d8ea682012E@Base 3.2.0
 _ZN4core3num7dec2flt6lemire5power17h91aee00c320b1ac0E@Base 3.2.0
 _ZN4core3num7dec2flt7decimal13parse_decimal17hff7e9bb64ac7c3c6E@Base 3.2.0
 _ZN4core3num7dec2flt7decimal7Decimal10left_shift17h2d56da417210eb4fE@Base 3.2.0
 _ZN4core3num7dec2flt7decimal7Decimal11right_shift17hf0e306105e5743beE@Base 3.2.0
 _ZN4core3num7dec2flt7decimal7Decimal5round17h5e63b6e884397f50E@Base 3.2.0
 _ZN4core3num7dec2flt9pfe_empty17h94bf69e84959fb5dE@Base 3.2.0
 _ZN4core3num7flt2dec14determine_sign17h4c8b0d410b810cdaE@Base 3.2.0
 _ZN4core3num7flt2dec17digits_to_dec_str17h588d3fa0fafae326E@Base 3.2.0
 _ZN4core3num7flt2dec17digits_to_exp_str17hcd09414631743638E@Base 3.2.0
 _ZN4core3num7flt2dec20estimate_max_buf_len17h6beac0fc81763b89E@Base 3.2.0
 _ZN4core3num7flt2dec8round_up17hbd32023c46bd1bbcE@Base 3.2.0
 _ZN4core3num7flt2dec8strategy5grisu12CACHED_POW1017hf7d077fc9387615aE@Base 3.2.0
 _ZN4core3num7flt2dec8strategy5grisu12cached_power17hf4801c365faed88eE@Base 3.2.0
 _ZN4core3num7flt2dec8strategy5grisu12format_exact17h40c60132b095115bE@Base 3.2.0
 _ZN4core3num7flt2dec8strategy5grisu15format_shortest17h4e575195086c759aE@Base 3.2.0
 _ZN4core3num7flt2dec8strategy5grisu16format_exact_opt17h29ce1a221592194aE@Base 3.2.0
 _ZN4core3num7flt2dec8strategy5grisu19format_shortest_opt17h76878720eb528e86E@Base 3.2.0
 _ZN4core3num7flt2dec8strategy5grisu22max_pow10_no_more_than17hde2119c72841a507E@Base 3.2.0
 _ZN4core3num7flt2dec8strategy6dragon12format_exact17h0a45d848737dfd3fE@Base 3.2.0
 _ZN4core3num7flt2dec8strategy6dragon15format_shortest17hd36a8554f104d45fE@Base 3.2.0
 _ZN4core3num7flt2dec8strategy6dragon9mul_pow1017hc0716f61b107d651E@Base 3.2.0
 _ZN4core3num7flt2dec9estimator23estimate_scaling_factor17h160f235eba2059eaE@Base 3.2.0
 _ZN4core3num7nonzero10NonZeroI1613new_unchecked8comptime17h5109531358b5a1b8E@Base 3.2.0
 _ZN4core3num7nonzero10NonZeroI3213new_unchecked8comptime17h59405e7735bc8f69E@Base 3.2.0
 _ZN4core3num7nonzero10NonZeroI6413new_unchecked8comptime17hc3394aff95d12a8eE@Base 3.2.0
 _ZN4core3num7nonzero10NonZeroU1613new_unchecked8comptime17he53915dc7e2aa154E@Base 3.2.0
 _ZN4core3num7nonzero10NonZeroU3213new_unchecked8comptime17h569c1ea4174a12e6E@Base 3.2.0
 _ZN4core3num7nonzero10NonZeroU6413new_unchecked8comptime17h1c3290cbacc8a9afE@Base 3.2.0
 _ZN4core3num7nonzero11NonZeroI12813new_unchecked8comptime17h37efb294c61068ebE@Base 3.2.0
 _ZN4core3num7nonzero11NonZeroU12813new_unchecked8comptime17h304872890db5e006E@Base 3.2.0
 _ZN4core3num7nonzero12NonZeroIsize13new_unchecked8comptime17h8317e09de5a07d29E@Base 3.2.0
 _ZN4core3num7nonzero12NonZeroUsize13new_unchecked8comptime17h8ac5b68c3a9ce7e1E@Base 3.2.0
 _ZN4core3num7nonzero9NonZeroI813new_unchecked8comptime17h47f610757af272a2E@Base 3.2.0
 _ZN4core3num7nonzero9NonZeroU813new_unchecked8comptime17hfd86b49403f69da2E@Base 3.2.0
 _ZN4core3num9diy_float2Fp12normalize_to17h732cc2ac270eff5eE@Base 3.2.0
 _ZN4core3num9diy_float2Fp3mul17h697abae540253fcfE@Base 3.2.0
 _ZN4core3num9diy_float2Fp9normalize17h0375eb32efde3c4fE@Base 3.2.0
 _ZN4core3ptr13read_volatile8comptime17h3940e913fa20ead3E@Base 3.2.0
 _ZN4core3ptr14write_volatile8comptime17h0b285ebf07d62170E@Base 3.2.0
 _ZN4core3ptr19swap_nonoverlapping8comptime17h7e1f42b782a1cd59E@Base 3.2.0
 _ZN4core3ptr7replace8comptime17he571d1eded0aa888E@Base 3.2.0
 _ZN4core3str16slice_error_fail17h83054571b9e8c5c2E@Base 3.2.0
 _ZN4core3str19slice_error_fail_ct17hc63e0dc996f82a4cE@Base 3.2.0
 _ZN4core3str19slice_error_fail_rt17h0ae941c0bf3cc580E@Base 3.2.0
 _ZN4core3str21_$LT$impl$u20$str$GT$12encode_utf1617h215ddac8be540d72E@Base 3.2.0
 _ZN4core3str21_$LT$impl$u20$str$GT$12escape_debug17h961e41a7799e7d5eE@Base 3.2.0
 _ZN4core3str21_$LT$impl$u20$str$GT$14escape_default17hc0fda8f13f56a9c5E@Base 3.2.0
 _ZN4core3str21_$LT$impl$u20$str$GT$14escape_unicode17h76fd04e1294c797cE@Base 3.2.0
 _ZN4core3str5count14do_count_chars17h8b3797543a0fc040E@Base 3.2.0
 _ZN4core3str5count23char_count_general_case17heafc5f1e2d620dceE@Base 3.2.0
 _ZN4core3str5lossy9Utf8Lossy10from_bytes17h86a3dc292c3be88cE@Base 3.2.0
 _ZN4core3str5lossy9Utf8Lossy6chunks17h0d95ee25a250d2faE@Base 3.2.0
 _ZN4core3str6traits23str_index_overflow_fail17h3eb740da0d45f5b8E@Base 3.2.0
 _ZN4core3str7pattern11StrSearcher3new17h164752b05c99e932E@Base 3.2.0
 _ZN4core3str8converts13from_utf8_mut17h172ff7db79b5080cE@Base 3.2.0
 _ZN4core3str8converts9from_utf817h6d68148b87bad508E@Base 3.2.0
 _ZN4core4char15CaseMappingIter3new17h7fdcc520436533deE@Base 3.2.0
 _ZN4core4char6decode16DecodeUtf16Error18unpaired_surrogate17h37852a2e06a13aa1E@Base 3.2.0
 _ZN4core4char7convert14ParseCharError13__description17h76c84458b67c5fd8E@Base 3.2.0
 _ZN4core4task4wake14RawWakerVTable3new17haf591451c1e190e5E@Base 3.2.0
 _ZN4core4time18FromFloatSecsError11description17h1b6647e296deaf19E@Base 3.2.0
 _ZN4core4time83_$LT$impl$u20$core..ops..arith..Mul$LT$core..time..Duration$GT$$u20$for$u20$u32$GT$3mul17h225e1590d1de4d98E@Base 3.2.0
 _ZN4core5ascii14escape_default17h4c411c77790df10cE@Base 3.2.0
 _ZN4core5panic10panic_info9PanicInfo10can_unwind17h1d7eadc86015aa94E@Base 3.2.0
 _ZN4core5panic10panic_info9PanicInfo7message17hf5fd1f26fe5e8fa1E@Base 3.2.0
 _ZN4core5panic10panic_info9PanicInfo7payload17h156b31bc417e4e71E@Base 3.2.0
 _ZN4core5panic10panic_info9PanicInfo8location17h48d521ba5f7d580fE@Base 3.2.0
 _ZN4core5panic8location8Location20internal_constructor17h00ab132d33518e10E@Base 3.2.0
 _ZN4core5panic8location8Location4file17h6d1bb9d8c6a39dd7E@Base 3.2.0
 _ZN4core5panic8location8Location4line17h10a01e9be6772b8eE@Base 3.2.0
 _ZN4core5panic8location8Location6column17hf9ab71efae2743abE@Base 3.2.0
 _ZN4core5slice29_$LT$impl$u20$$u5b$T$u5d$$GT$14swap_unchecked8comptime17h0e654b7508c5b00aE@Base 3.2.0
 _ZN4core5slice29_$LT$impl$u20$$u5b$T$u5d$$GT$15copy_from_slice17len_mismatch_fail17h9f3031a3aace87fbE@Base 3.2.0
 _ZN4core5slice29_$LT$impl$u20$$u5b$T$u5d$$GT$19as_chunks_unchecked8comptime17hbc8df74859523783E@Base 3.2.0
 _ZN4core5slice29_$LT$impl$u20$$u5b$T$u5d$$GT$22split_at_mut_unchecked8comptime17hbf1a4e0a23be1242E@Base 3.2.0
 _ZN4core5slice29_$LT$impl$u20$$u5b$T$u5d$$GT$23as_chunks_unchecked_mut8comptime17he24cd779d45d00efE@Base 3.2.0
 _ZN4core5slice3raw14from_raw_parts8comptime17h7b7d86653686af03E@Base 3.2.0
 _ZN4core5slice3raw18from_raw_parts_mut8comptime17h18da567c10c5e8d9E@Base 3.2.0
 _ZN4core5slice5ascii30_$LT$impl$u20$$u5b$u8$u5d$$GT$10trim_ascii17hae9db73c71ebd472E@Base 3.2.0
 _ZN4core5slice5ascii30_$LT$impl$u20$$u5b$u8$u5d$$GT$12escape_ascii17h5ccef826df16e06bE@Base 3.2.0
 _ZN4core5slice5ascii30_$LT$impl$u20$$u5b$u8$u5d$$GT$14trim_ascii_end17h3c9de9fbd36cf318E@Base 3.2.0
 _ZN4core5slice5ascii30_$LT$impl$u20$$u5b$u8$u5d$$GT$16trim_ascii_start17hb239833375a1b230E@Base 3.2.0
 _ZN4core5slice5index10into_range17hd7d003395ffb28f6E@Base 3.2.0
 _ZN4core5slice5index16into_slice_range17h3f6a39c1d15edaa2E@Base 3.2.0
 _ZN4core5slice5index20into_range_unchecked17h42971dcdaccd1f68E@Base 3.2.0
 _ZN4core5slice5index22slice_index_order_fail17h13b214fe610d0c31E@Base 3.2.0
 _ZN4core5slice5index24slice_end_index_len_fail17hd760905eb8946465E@Base 3.2.0
 _ZN4core5slice5index25slice_index_order_fail_ct17h7ca6875dd3f6f6e0E@Base 3.2.0
 _ZN4core5slice5index25slice_index_order_fail_rt17heb7db2f40fe5919bE@Base 3.2.0
 _ZN4core5slice5index26slice_start_index_len_fail17h57b95074f47fc0a8E@Base 3.2.0
 _ZN4core5slice5index27slice_end_index_len_fail_ct17hfc0e485b67713d49E@Base 3.2.0
 _ZN4core5slice5index27slice_end_index_len_fail_rt17ha5f71de64025b070E@Base 3.2.0
 _ZN4core5slice5index29slice_end_index_overflow_fail17h474fed6a5bf0c13bE@Base 3.2.0
 _ZN4core5slice5index29slice_start_index_len_fail_ct17ha0ada829e7b65da6E@Base 3.2.0
 _ZN4core5slice5index29slice_start_index_len_fail_rt17h6a15d825037ea105E@Base 3.2.0
 _ZN4core5slice5index31slice_start_index_overflow_fail17hc9431ed6d28c70b8E@Base 3.2.0
 _ZN4core5slice6memchr19memchr_general_case17h423ebc9b22c454d4E@Base 3.2.0
 _ZN4core5slice6memchr7memrchr17hbf496020e2d89380E@Base 3.2.0
 _ZN4core6option13expect_failed17h5b018162b028affcE@Base 3.2.0
 _ZN4core6result13unwrap_failed17he39580c75382a59fE@Base 3.2.0
 _ZN4core7unicode12unicode_data10alphabetic6lookup17hca0e711dc711f897E@Base 3.2.0
 _ZN4core7unicode12unicode_data11conversions8to_lower17h737328fcbc0e2e5cE@Base 3.2.0
 _ZN4core7unicode12unicode_data11conversions8to_upper17heab43c5f14b4be91E@Base 3.2.0
 _ZN4core7unicode12unicode_data11white_space6lookup17h51a7ee4af7752ae7E@Base 3.2.0
 _ZN4core7unicode12unicode_data14case_ignorable6lookup17hbe155cfe5149e62bE@Base 3.2.0
 _ZN4core7unicode12unicode_data15grapheme_extend6lookup17hb2f0790e70085e72E@Base 3.2.0
 _ZN4core7unicode12unicode_data1n6lookup17h348049e63482ab6dE@Base 3.2.0
 _ZN4core7unicode12unicode_data2cc6lookup17h8d75a1b5575a9e77E@Base 3.2.0
 _ZN4core7unicode12unicode_data5cased6lookup17h64372bd6e0ea4b25E@Base 3.2.0
 _ZN4core7unicode12unicode_data9lowercase6lookup17hc52319089e967778E@Base 3.2.0
 _ZN4core7unicode12unicode_data9uppercase6lookup17h4ae746b2c24849e8E@Base 3.2.0
 _ZN4core7unicode9printable12is_printable17h4ec3b0e8e87a6078E@Base 3.2.0
 _ZN4core9core_simd5masks71_$LT$impl$u20$core..core_simd..masks..sealed..Sealed$u20$for$u20$i8$GT$2eq17h8b5cec751494c8a2E@Base 3.2.0
 _ZN4core9core_simd5masks72_$LT$impl$u20$core..core_simd..masks..sealed..Sealed$u20$for$u20$i16$GT$2eq17h4a2d36a6a1e772ecE@Base 3.2.0
 _ZN4core9core_simd5masks72_$LT$impl$u20$core..core_simd..masks..sealed..Sealed$u20$for$u20$i32$GT$2eq17h947c358549ded062E@Base 3.2.0
 _ZN4core9core_simd5masks72_$LT$impl$u20$core..core_simd..masks..sealed..Sealed$u20$for$u20$i64$GT$2eq17hc461bd38e9518718E@Base 3.2.0
 _ZN4core9core_simd5masks74_$LT$impl$u20$core..core_simd..masks..sealed..Sealed$u20$for$u20$isize$GT$2eq17hfc37647d21078334E@Base 3.2.0
 _ZN4core9panicking15const_panic_fmt17h9b46b9650a60a73aE@Base 3.2.0
 _ZN4core9panicking15panic_no_unwind17h138ce91cf38261feE@Base 3.2.0
 _ZN4core9panicking18panic_bounds_check17h6dc4055b88b9eaa9E@Base 3.2.0
 _ZN4core9panicking19assert_failed_inner17h91119503860ed9b7E@Base 3.2.0
 _ZN4core9panicking5panic17h6b6188ef907db40dE@Base 3.2.0
 _ZN4core9panicking9panic_fmt17hb6ac69ce7975738dE@Base 3.2.0
 _ZN50_$LT$i16$u20$as$u20$core..fmt..num..DisplayInt$GT$4zero17h39c7b6f1f14b6f08E@Base 3.2.0
 _ZN50_$LT$i16$u20$as$u20$core..fmt..num..DisplayInt$GT$5to_u817h78cca10cae9af84fE@Base 3.2.0
 _ZN50_$LT$i16$u20$as$u20$core..fmt..num..DisplayInt$GT$6to_u1617h09f487cb2cc10a31E@Base 3.2.0
 _ZN50_$LT$i16$u20$as$u20$core..fmt..num..DisplayInt$GT$6to_u3217h0784526778fa404cE@Base 3.2.0
 _ZN50_$LT$i16$u20$as$u20$core..fmt..num..DisplayInt$GT$6to_u6417hc6431b167cff8af8E@Base 3.2.0
 _ZN50_$LT$i16$u20$as$u20$core..fmt..num..DisplayInt$GT$7from_u817h1803f0e499e5a833E@Base 3.2.0
 _ZN50_$LT$i16$u20$as$u20$core..fmt..num..DisplayInt$GT$7to_u12817h5232ea06d3b260fdE@Base 3.2.0
 _ZN50_$LT$i16$u20$as$u20$std..sys..unix..IsMinusOne$GT$12is_minus_one17hed80619506feb19dE@Base 3.2.0
 _ZN50_$LT$i32$u20$as$u20$core..fmt..num..DisplayInt$GT$4zero17h217958af3de8c7b0E@Base 3.2.0
 _ZN50_$LT$i32$u20$as$u20$core..fmt..num..DisplayInt$GT$5to_u817h70b22e4b5bfcd7f4E@Base 3.2.0
 _ZN50_$LT$i32$u20$as$u20$core..fmt..num..DisplayInt$GT$6to_u1617hc89a2641c212e89fE@Base 3.2.0
 _ZN50_$LT$i32$u20$as$u20$core..fmt..num..DisplayInt$GT$6to_u3217h9313f54df7c4d195E@Base 3.2.0
 _ZN50_$LT$i32$u20$as$u20$core..fmt..num..DisplayInt$GT$6to_u6417hf52788ec73118724E@Base 3.2.0
 _ZN50_$LT$i32$u20$as$u20$core..fmt..num..DisplayInt$GT$7from_u817h4de14f0193cee110E@Base 3.2.0
 _ZN50_$LT$i32$u20$as$u20$core..fmt..num..DisplayInt$GT$7to_u12817h74b9212448489e22E@Base 3.2.0
 _ZN50_$LT$i32$u20$as$u20$std..sys..unix..IsMinusOne$GT$12is_minus_one17h8af522c692a1c5e6E@Base 3.2.0
 _ZN50_$LT$i64$u20$as$u20$core..fmt..num..DisplayInt$GT$4zero17h245b77e4c20ce02bE@Base 3.2.0
 _ZN50_$LT$i64$u20$as$u20$core..fmt..num..DisplayInt$GT$5to_u817h817288f25e66e53fE@Base 3.2.0
 _ZN50_$LT$i64$u20$as$u20$core..fmt..num..DisplayInt$GT$6to_u1617h05717ec1591ce025E@Base 3.2.0
 _ZN50_$LT$i64$u20$as$u20$core..fmt..num..DisplayInt$GT$6to_u3217hed92509312c47cb9E@Base 3.2.0
 _ZN50_$LT$i64$u20$as$u20$core..fmt..num..DisplayInt$GT$6to_u6417h72599780e4d6130eE@Base 3.2.0
 _ZN50_$LT$i64$u20$as$u20$core..fmt..num..DisplayInt$GT$7from_u817h8f7c30d59ee48bc8E@Base 3.2.0
 _ZN50_$LT$i64$u20$as$u20$core..fmt..num..DisplayInt$GT$7to_u12817ha5ca8bfcdae17cbbE@Base 3.2.0
 _ZN50_$LT$i64$u20$as$u20$std..sys..unix..IsMinusOne$GT$12is_minus_one17h9b6e625a131a42a2E@Base 3.2.0
 _ZN50_$LT$std..fs..File$u20$as$u20$core..fmt..Debug$GT$3fmt17h9ec25b26a53ed3b6E@Base 3.2.0
 _ZN50_$LT$u16$u20$as$u20$core..fmt..num..DisplayInt$GT$4zero17h8a6b4f35cb28643cE@Base 3.2.0
 _ZN50_$LT$u16$u20$as$u20$core..fmt..num..DisplayInt$GT$5to_u817h2c9d6e83b3dfffc5E@Base 3.2.0
 _ZN50_$LT$u16$u20$as$u20$core..fmt..num..DisplayInt$GT$6to_u1617hca6e3d6975cce5b8E@Base 3.2.0
 _ZN50_$LT$u16$u20$as$u20$core..fmt..num..DisplayInt$GT$6to_u3217hc6e944c1ba7c4ee0E@Base 3.2.0
 _ZN50_$LT$u16$u20$as$u20$core..fmt..num..DisplayInt$GT$6to_u6417h8e588cec81e31ee2E@Base 3.2.0
 _ZN50_$LT$u16$u20$as$u20$core..fmt..num..DisplayInt$GT$7from_u817h4fe4a05c0958126aE@Base 3.2.0
 _ZN50_$LT$u16$u20$as$u20$core..fmt..num..DisplayInt$GT$7to_u12817hc7fa0cfff0bdef57E@Base 3.2.0
 _ZN50_$LT$u16$u20$as$u20$core..num..bignum..FullOps$GT$12full_div_rem17h0c401bc8c582e9e3E@Base 3.2.0
 _ZN50_$LT$u16$u20$as$u20$core..num..bignum..FullOps$GT$12full_mul_add17h3ab97a31848e88edE@Base 3.2.0
 _ZN50_$LT$u32$u20$as$u20$core..fmt..num..DisplayInt$GT$4zero17h3c910119f04212a0E@Base 3.2.0
 _ZN50_$LT$u32$u20$as$u20$core..fmt..num..DisplayInt$GT$5to_u817hb7a16214bd384352E@Base 3.2.0
 _ZN50_$LT$u32$u20$as$u20$core..fmt..num..DisplayInt$GT$6to_u1617h44cf54563dddd820E@Base 3.2.0
 _ZN50_$LT$u32$u20$as$u20$core..fmt..num..DisplayInt$GT$6to_u3217heb6caacd171acbdfE@Base 3.2.0
 _ZN50_$LT$u32$u20$as$u20$core..fmt..num..DisplayInt$GT$6to_u6417h93a4a4b7c7e1762dE@Base 3.2.0
 _ZN50_$LT$u32$u20$as$u20$core..fmt..num..DisplayInt$GT$7from_u817ha6af8e567d53b616E@Base 3.2.0
 _ZN50_$LT$u32$u20$as$u20$core..fmt..num..DisplayInt$GT$7to_u12817he63a6741d2031cf8E@Base 3.2.0
 _ZN50_$LT$u32$u20$as$u20$core..num..bignum..FullOps$GT$12full_div_rem17h12e858a9544c4e37E@Base 3.2.0
 _ZN50_$LT$u32$u20$as$u20$core..num..bignum..FullOps$GT$12full_mul_add17h3fb89000ab6debe6E@Base 3.2.0
 _ZN50_$LT$u64$u20$as$u20$core..fmt..num..DisplayInt$GT$4zero17h9516dda9a474b5f4E@Base 3.2.0
 _ZN50_$LT$u64$u20$as$u20$core..fmt..num..DisplayInt$GT$5to_u817hf1e2061c2600b2a8E@Base 3.2.0
 _ZN50_$LT$u64$u20$as$u20$core..fmt..num..DisplayInt$GT$6to_u1617h8b162d835e002b9dE@Base 3.2.0
 _ZN50_$LT$u64$u20$as$u20$core..fmt..num..DisplayInt$GT$6to_u3217hedb1285e82211774E@Base 3.2.0
 _ZN50_$LT$u64$u20$as$u20$core..fmt..num..DisplayInt$GT$6to_u6417h2217468fbec39923E@Base 3.2.0
 _ZN50_$LT$u64$u20$as$u20$core..fmt..num..DisplayInt$GT$7from_u817h598a325a7aad7021E@Base 3.2.0
 _ZN50_$LT$u64$u20$as$u20$core..fmt..num..DisplayInt$GT$7to_u12817hc10c54e37bf4d4c9E@Base 3.2.0
 _ZN51_$LT$$RF$std..fs..File$u20$as$u20$std..io..Read$GT$11read_to_end17hb96feb75ae3fb069E@Base 3.2.0
 _ZN51_$LT$$RF$std..fs..File$u20$as$u20$std..io..Read$GT$13read_vectored17h6868042d1a1651dfE@Base 3.2.0
 _ZN51_$LT$$RF$std..fs..File$u20$as$u20$std..io..Read$GT$14read_to_string17hc03087b90ed5137aE@Base 3.2.0
 _ZN51_$LT$$RF$std..fs..File$u20$as$u20$std..io..Read$GT$4read17hdc7d6005ebee5262E@Base 3.2.0
 _ZN51_$LT$$RF$std..fs..File$u20$as$u20$std..io..Read$GT$8read_buf17h9ae73abaeeb7a97eE@Base 3.2.0
 _ZN51_$LT$$RF$std..fs..File$u20$as$u20$std..io..Seek$GT$4seek17h2e20a37a8e31ca5eE@Base 3.2.0
 _ZN51_$LT$$u21$$u20$as$u20$std..process..Termination$GT$6report17h284c48303d8d52dcE@Base 3.2.0
 _ZN51_$LT$adler..Adler32$u20$as$u20$core..fmt..Debug$GT$3fmt17h15c28922ff73848cE@Base 3.2.0
 _ZN51_$LT$i128$u20$as$u20$core..fmt..num..DisplayInt$GT$4zero17hc8093443533dacbbE@Base 3.2.0
 _ZN51_$LT$i128$u20$as$u20$core..fmt..num..DisplayInt$GT$5to_u817h2b328503570a1344E@Base 3.2.0
 _ZN51_$LT$i128$u20$as$u20$core..fmt..num..DisplayInt$GT$6to_u1617hc4bcea565af8bff1E@Base 3.2.0
 _ZN51_$LT$i128$u20$as$u20$core..fmt..num..DisplayInt$GT$6to_u3217h5c10c1be93b0509cE@Base 3.2.0
 _ZN51_$LT$i128$u20$as$u20$core..fmt..num..DisplayInt$GT$6to_u6417hd1fbe3e7b74ae6b5E@Base 3.2.0
 _ZN51_$LT$i128$u20$as$u20$core..fmt..num..DisplayInt$GT$7from_u817h65297fee1a3e635fE@Base 3.2.0
 _ZN51_$LT$i128$u20$as$u20$core..fmt..num..DisplayInt$GT$7to_u12817hf2313993f1560e7cE@Base 3.2.0
 _ZN51_$LT$std..env..Args$u20$as$u20$core..fmt..Debug$GT$3fmt17h68dc2166aab67ae0E@Base 3.2.0
 _ZN51_$LT$std..env..Vars$u20$as$u20$core..fmt..Debug$GT$3fmt17h0702bafe613ac801E@Base 3.2.0
 _ZN51_$LT$u128$u20$as$u20$core..fmt..num..DisplayInt$GT$4zero17h4131489e7e108b3aE@Base 3.2.0
 _ZN51_$LT$u128$u20$as$u20$core..fmt..num..DisplayInt$GT$5to_u817hcfc0c6683c22e144E@Base 3.2.0
 _ZN51_$LT$u128$u20$as$u20$core..fmt..num..DisplayInt$GT$6to_u1617h647901484a306c11E@Base 3.2.0
 _ZN51_$LT$u128$u20$as$u20$core..fmt..num..DisplayInt$GT$6to_u3217h85e972beedad0daeE@Base 3.2.0
 _ZN51_$LT$u128$u20$as$u20$core..fmt..num..DisplayInt$GT$6to_u6417hc540ef1ae99bed64E@Base 3.2.0
 _ZN51_$LT$u128$u20$as$u20$core..fmt..num..DisplayInt$GT$7from_u817hf1dec790a7aee422E@Base 3.2.0
 _ZN51_$LT$u128$u20$as$u20$core..fmt..num..DisplayInt$GT$7to_u12817hb925b8bb52462d1eE@Base 3.2.0
 _ZN52_$LT$$RF$std..fs..File$u20$as$u20$std..io..Write$GT$14write_vectored17h10627abc001a03b9E@Base 3.2.0
 _ZN52_$LT$$RF$std..fs..File$u20$as$u20$std..io..Write$GT$5flush17h863386f055977883E@Base 3.2.0
 _ZN52_$LT$$RF$std..fs..File$u20$as$u20$std..io..Write$GT$5write17hb7c4b774d127b2a5E@Base 3.2.0
 _ZN52_$LT$isize$u20$as$u20$core..fmt..num..DisplayInt$GT$4zero17he64d5a283b4f9394E@Base 3.2.0
 _ZN52_$LT$isize$u20$as$u20$core..fmt..num..DisplayInt$GT$5to_u817h7548b132c4f39f3fE@Base 3.2.0
 _ZN52_$LT$isize$u20$as$u20$core..fmt..num..DisplayInt$GT$6to_u1617h2adaf425cb1fd87dE@Base 3.2.0
 _ZN52_$LT$isize$u20$as$u20$core..fmt..num..DisplayInt$GT$6to_u3217hc4d50da09c0c0e6dE@Base 3.2.0
 _ZN52_$LT$isize$u20$as$u20$core..fmt..num..DisplayInt$GT$6to_u6417h2030edb03a64a15aE@Base 3.2.0
 _ZN52_$LT$isize$u20$as$u20$core..fmt..num..DisplayInt$GT$7from_u817hbeca8e92123b3e58E@Base 3.2.0
 _ZN52_$LT$isize$u20$as$u20$core..fmt..num..DisplayInt$GT$7to_u12817h849cd25d76e9fc64E@Base 3.2.0
 _ZN52_$LT$isize$u20$as$u20$std..sys..unix..IsMinusOne$GT$12is_minus_one17h0744b87fb17c6c00E@Base 3.2.0
 _ZN52_$LT$std..path..Iter$u20$as$u20$core..fmt..Debug$GT$3fmt17h18e73b2185f2db36E@Base 3.2.0
 _ZN52_$LT$std..path..Path$u20$as$u20$core..fmt..Debug$GT$3fmt17h2ba5add76a6716e8E@Base 3.2.0
 _ZN52_$LT$usize$u20$as$u20$core..fmt..num..DisplayInt$GT$4zero17h5998c2bf84befaddE@Base 3.2.0
 _ZN52_$LT$usize$u20$as$u20$core..fmt..num..DisplayInt$GT$5to_u817hcb37f6b3687940c9E@Base 3.2.0
 _ZN52_$LT$usize$u20$as$u20$core..fmt..num..DisplayInt$GT$6to_u1617h4b571ce59a492de9E@Base 3.2.0
 _ZN52_$LT$usize$u20$as$u20$core..fmt..num..DisplayInt$GT$6to_u3217hbe4d6b34d68f0629E@Base 3.2.0
 _ZN52_$LT$usize$u20$as$u20$core..fmt..num..DisplayInt$GT$6to_u6417h811ef0ff286a6406E@Base 3.2.0
 _ZN52_$LT$usize$u20$as$u20$core..fmt..num..DisplayInt$GT$7from_u817hf9c0b868b24a36e4E@Base 3.2.0
 _ZN52_$LT$usize$u20$as$u20$core..fmt..num..DisplayInt$GT$7to_u12817h627e7981abac9116E@Base 3.2.0
 _ZN53_$LT$adler..Adler32$u20$as$u20$core..hash..Hasher$GT$5write17hc2ea88a900658437E@Base 3.2.0
 _ZN53_$LT$core..fmt..Error$u20$as$u20$core..fmt..Debug$GT$3fmt17h870c38fe7d004d63E@Base 3.2.0
 _ZN53_$LT$object..pe..Guid$u20$as$u20$core..fmt..Debug$GT$3fmt17h4725cdc6986da301E@Base 3.2.0
 _ZN53_$LT$std..env..ArgsOs$u20$as$u20$core..fmt..Debug$GT$3fmt17h801d1f7d10a0db8eE@Base 3.2.0
 _ZN53_$LT$std..env..VarsOs$u20$as$u20$core..fmt..Debug$GT$3fmt17h74c5bdc29af4f1deE@Base 3.2.0
 _ZN53_$LT$std..fs..ReadDir$u20$as$u20$core..fmt..Debug$GT$3fmt17h3184f93410b1cb11E@Base 3.2.0
 _ZN53_$LT$std..io..IoSlice$u20$as$u20$core..fmt..Debug$GT$3fmt17ha08fcf0068ac690fE@Base 3.2.0
 _ZN53_$LT$std..path..State$u20$as$u20$core..fmt..Debug$GT$3fmt17h11a9b18dcaa392e8E@Base 3.2.0
 _ZN53_$LT$str$u20$as$u20$std..net..addr..ToSocketAddrs$GT$15to_socket_addrs17h5e31d561333685b0E@Base 3.2.0
 _ZN54_$LT$$BP$const$u20$T$u20$as$u20$core..fmt..Pointer$GT$3fmt5inner17hcf08c28c3b31bff1E@Base 3.2.0
 _ZN54_$LT$core..any..TypeId$u20$as$u20$core..fmt..Debug$GT$3fmt17h4552f93a50d925afE@Base 3.2.0
 _ZN54_$LT$core..ffi..VaList$u20$as$u20$core..fmt..Debug$GT$3fmt17he05d98cd25038821E@Base 3.2.0
 _ZN54_$LT$core..ffi..c_void$u20$as$u20$core..fmt..Debug$GT$3fmt17h00a397459df62cadE@Base 3.2.0
 _ZN54_$LT$core..fmt..Error$u20$as$u20$std..error..Error$GT$11description17hfa2e5531019f2417E@Base 3.2.0
 _ZN54_$LT$std..error..Chain$u20$as$u20$core..fmt..Debug$GT$3fmt17hf2cd6e57f8e88f07E@Base 3.2.0
 _ZN54_$LT$std..fs..DirEntry$u20$as$u20$core..fmt..Debug$GT$3fmt17h12ed306b7c46ac0bE@Base 3.2.0
 _ZN54_$LT$std..fs..FileType$u20$as$u20$core..fmt..Debug$GT$3fmt17h881d03fcde19539fE@Base 3.2.0
 _ZN54_$LT$std..fs..Metadata$u20$as$u20$core..fmt..Debug$GT$3fmt17h41a9fbcac045c487E@Base 3.2.0
 _ZN54_$LT$std..io..SeekFrom$u20$as$u20$core..fmt..Debug$GT$3fmt17hac179d9ebb1723fdE@Base 3.2.0
 _ZN54_$LT$std..io..util..Empty$u20$as$u20$std..io..Seek$GT$10stream_len17h8654d5761d86b291E@Base 3.2.0
 _ZN54_$LT$std..io..util..Empty$u20$as$u20$std..io..Seek$GT$15stream_position17hb09300f0b0e6160cE@Base 3.2.0
 _ZN54_$LT$std..io..util..Empty$u20$as$u20$std..io..Seek$GT$4seek17h52de3726ea9e600eE@Base 3.2.0
 _ZN54_$LT$std..path..Prefix$u20$as$u20$core..fmt..Debug$GT$3fmt17hc1e55b855833a265E@Base 3.2.0
 _ZN55_$LT$core..fmt..Error$u20$as$u20$core..fmt..Display$GT$3fmt17hd0c8c228ae6e0b9eE@Base 3.2.0
 _ZN55_$LT$f32$u20$as$u20$core..fmt..float..GeneralFormat$GT$44already_rounded_value_should_use_exponential17h14cab76fb021c0a6E@Base 3.2.0
 _ZN55_$LT$f64$u20$as$u20$core..fmt..float..GeneralFormat$GT$44already_rounded_value_should_use_exponential17hf9b360f503f07d87E@Base 3.2.0
 _ZN55_$LT$object..elf..Ident$u20$as$u20$core..fmt..Debug$GT$3fmt17heab2cd23b791667cE@Base 3.2.0
 _ZN55_$LT$std..alloc..System$u20$as$u20$core..fmt..Debug$GT$3fmt17h0f711e7621b9fc79E@Base 3.2.0
 _ZN55_$LT$std..env..VarError$u20$as$u20$core..fmt..Debug$GT$3fmt17h7cb421fbba242392E@Base 3.2.0
 _ZN55_$LT$std..io..stdio..Stdin$u20$as$u20$std..io..Read$GT$10read_exact17ha2d2eb322af2dfdaE@Base 3.2.0
 _ZN55_$LT$std..io..stdio..Stdin$u20$as$u20$std..io..Read$GT$11read_to_end17hf451023a391af612E@Base 3.2.0
 _ZN55_$LT$std..io..stdio..Stdin$u20$as$u20$std..io..Read$GT$13read_vectored17ha195d7e1539523f8E@Base 3.2.0
 _ZN55_$LT$std..io..stdio..Stdin$u20$as$u20$std..io..Read$GT$14read_to_string17h492af2093a718050E@Base 3.2.0
 _ZN55_$LT$std..io..stdio..Stdin$u20$as$u20$std..io..Read$GT$4read17h5fabe48d7e85a85eE@Base 3.2.0
 _ZN55_$LT$std..io..util..Repeat$u20$as$u20$std..io..Read$GT$8read_buf17hf19c6024a3180d05E@Base 3.2.0
 _ZN55_$LT$std..net..Shutdown$u20$as$u20$core..fmt..Debug$GT$3fmt17he92acc2fb6a3752aE@Base 3.2.0
 _ZN55_$LT$std..path..Display$u20$as$u20$core..fmt..Debug$GT$3fmt17hfe5391afa90fb527E@Base 3.2.0
 _ZN55_$LT$std..path..PathBuf$u20$as$u20$core..fmt..Debug$GT$3fmt17h7c28ffde05952f6aE@Base 3.2.0
 _ZN55_$LT$std..time..Instant$u20$as$u20$core..fmt..Debug$GT$3fmt17h8f31363c4f00fa8eE@Base 3.2.0
 _ZN56_$LT$core..cmp..Ordering$u20$as$u20$core..fmt..Debug$GT$3fmt17h723021cfb78bcda1E@Base 3.2.0
 _ZN56_$LT$object..read..Error$u20$as$u20$core..fmt..Debug$GT$3fmt17h403c93ab45bac6d4E@Base 3.2.0
 _ZN56_$LT$std..env..VarError$u20$as$u20$std..error..Error$GT$11description17hc1e528ccb00ae7ccE@Base 3.2.0
 _ZN56_$LT$std..ffi..c_str..CStr$u20$as$u20$core..cmp..Ord$GT$3cmp17h111d9b6f108e5705E@Base 3.2.0
 _ZN56_$LT$std..fs..DirBuilder$u20$as$u20$core..fmt..Debug$GT$3fmt17ha458c3d190301b98E@Base 3.2.0
 _ZN56_$LT$std..io..Guard$u20$as$u20$core..ops..drop..Drop$GT$4drop17h89f3ae7c590fca3aE@Base 3.2.0
 _ZN56_$LT$std..io..IoSliceMut$u20$as$u20$core..fmt..Debug$GT$3fmt17hdeada95f110ade4bE@Base 3.2.0
 _ZN56_$LT$std..io..util..Sink$u20$as$u20$core..fmt..Debug$GT$3fmt17hda0f077f610e7507E@Base 3.2.0
 _ZN56_$LT$std..process..Child$u20$as$u20$core..fmt..Debug$GT$3fmt17h223afd3e0789dd1fE@Base 3.2.0
 _ZN56_$LT$std..process..Stdio$u20$as$u20$core..fmt..Debug$GT$3fmt17h6b27f2f23b8fb64bE@Base 3.2.0
 _ZN56_$LT$std..thread..Thread$u20$as$u20$core..fmt..Debug$GT$3fmt17hfe16208d106f7b51E@Base 3.2.0
 _ZN57_$LT$alloc..alloc..Global$u20$as$u20$core..fmt..Debug$GT$3fmt17hb731ab96dbe2c858E@Base 3.2.0
 _ZN57_$LT$alloc..string..Drain$u20$as$u20$core..fmt..Debug$GT$3fmt17hf0efb7eb7599bd82E@Base 3.2.0
 _ZN57_$LT$core..fmt..Alignment$u20$as$u20$core..fmt..Debug$GT$3fmt17h88018dadf3c616d9E@Base 3.2.0
 _ZN57_$LT$core..fmt..Arguments$u20$as$u20$core..fmt..Debug$GT$3fmt17ha30634285ffffb4cE@Base 3.2.0
 _ZN57_$LT$core..fmt..Formatter$u20$as$u20$core..fmt..Write$GT$10write_char17hc9b432cb03e17233E@Base 3.2.0
 _ZN57_$LT$core..fmt..Formatter$u20$as$u20$core..fmt..Write$GT$9write_fmt17hac1bcc63da6d3595E@Base 3.2.0
 _ZN57_$LT$core..fmt..Formatter$u20$as$u20$core..fmt..Write$GT$9write_str17h251264c2763714a1E@Base 3.2.0
 _ZN57_$LT$core..num..fmt..Part$u20$as$u20$core..fmt..Debug$GT$3fmt17h6f50c67af30a6abeE@Base 3.2.0
 _ZN57_$LT$core..time..Duration$u20$as$u20$core..fmt..Debug$GT$3fmt17h0392f5cad45079d2E@Base 3.2.0
 _ZN57_$LT$gimli..common..DwoId$u20$as$u20$core..fmt..Debug$GT$3fmt17h046dd1155eb6fa24E@Base 3.2.0
 _ZN57_$LT$object..read..Export$u20$as$u20$core..fmt..Debug$GT$3fmt17ha62b4a1eeb13c706E@Base 3.2.0
 _ZN57_$LT$object..read..Import$u20$as$u20$core..fmt..Debug$GT$3fmt17h0b317758c4aa62f2E@Base 3.2.0
 _ZN57_$LT$std..env..SplitPaths$u20$as$u20$core..fmt..Debug$GT$3fmt17h4673269033b7cd13E@Base 3.2.0
 _ZN57_$LT$std..env..VarError$u20$as$u20$core..fmt..Display$GT$3fmt17h1df374f10e723864E@Base 3.2.0
 _ZN57_$LT$std..error..Report$u20$as$u20$core..fmt..Display$GT$3fmt17h172febc5e7571a04E@Base 3.2.0
 _ZN57_$LT$std..fs..OpenOptions$u20$as$u20$core..fmt..Debug$GT$3fmt17hdd7d7284c27cbaf3E@Base 3.2.0
 _ZN57_$LT$std..fs..Permissions$u20$as$u20$core..fmt..Debug$GT$3fmt17he510b8d0235604e8E@Base 3.2.0
 _ZN57_$LT$std..io..stdio..Stderr$u20$as$u20$std..io..Write$GT$14write_vectored17hd1c84a5a7e658bf6E@Base 3.2.0
 _ZN57_$LT$std..io..stdio..Stderr$u20$as$u20$std..io..Write$GT$18write_all_vectored17ha4f32bf59b3b1970E@Base 3.2.0
 _ZN57_$LT$std..io..stdio..Stderr$u20$as$u20$std..io..Write$GT$5flush17h9c558b3d0479dc54E@Base 3.2.0
 _ZN57_$LT$std..io..stdio..Stderr$u20$as$u20$std..io..Write$GT$5write17h1df399f6232d8077E@Base 3.2.0
 _ZN57_$LT$std..io..stdio..Stderr$u20$as$u20$std..io..Write$GT$9write_all17hcf12cceb6e768dedE@Base 3.2.0
 _ZN57_$LT$std..io..stdio..Stderr$u20$as$u20$std..io..Write$GT$9write_fmt17h67ea14ff71e982aaE@Base 3.2.0
 _ZN57_$LT$std..io..stdio..Stdout$u20$as$u20$std..io..Write$GT$14write_vectored17he5765341bb07a40dE@Base 3.2.0
 _ZN57_$LT$std..io..stdio..Stdout$u20$as$u20$std..io..Write$GT$18write_all_vectored17h8e2971487b970626E@Base 3.2.0
 _ZN57_$LT$std..io..stdio..Stdout$u20$as$u20$std..io..Write$GT$5flush17hdb6f754472300251E@Base 3.2.0
 _ZN57_$LT$std..io..stdio..Stdout$u20$as$u20$std..io..Write$GT$5write17h3c20cdcc0c2859ccE@Base 3.2.0
 _ZN57_$LT$std..io..stdio..Stdout$u20$as$u20$std..io..Write$GT$9write_all17h11b93d32b588df1eE@Base 3.2.0
 _ZN57_$LT$std..io..stdio..Stdout$u20$as$u20$std..io..Write$GT$9write_fmt17h3d78ed391607426aE@Base 3.2.0
 _ZN57_$LT$std..io..util..Empty$u20$as$u20$core..fmt..Debug$GT$3fmt17h83eb2451f8ddd11bE@Base 3.2.0
 _ZN57_$LT$std..net..ip..IpAddr$u20$as$u20$core..fmt..Debug$GT$3fmt17h3dbf1a50451512ecE@Base 3.2.0
 _ZN57_$LT$std..path..Ancestors$u20$as$u20$core..fmt..Debug$GT$3fmt17h7152e5f30f2af82bE@Base 3.2.0
 _ZN57_$LT$std..path..Component$u20$as$u20$core..fmt..Debug$GT$3fmt17h635351d0b9aea08aE@Base 3.2.0
 _ZN57_$LT$std..path..Display$u20$as$u20$core..fmt..Display$GT$3fmt17h09bfa2ee35635c20E@Base 3.2.0
 _ZN57_$LT$std..process..Output$u20$as$u20$core..fmt..Debug$GT$3fmt17h3a33683f837b5528E@Base 3.2.0
 _ZN57_$LT$std..thread..Builder$u20$as$u20$core..fmt..Debug$GT$3fmt17h5b77f5e7fdb425c1E@Base 3.2.0
 _ZN58_$LT$core..ffi..VaListImpl$u20$as$u20$core..fmt..Debug$GT$3fmt17h1c47340bedaf2736E@Base 3.2.0
 _ZN58_$LT$core..num..FpCategory$u20$as$u20$core..fmt..Debug$GT$3fmt17h0d29312ea7424d1bE@Base 3.2.0
 _ZN58_$LT$gimli..common..Format$u20$as$u20$core..fmt..Debug$GT$3fmt17h24e6e19148339e3dE@Base 3.2.0
 _ZN58_$LT$std..ffi..c_str..CStr$u20$as$u20$core..fmt..Debug$GT$3fmt17h687585e95d06f756E@Base 3.2.0
 _ZN58_$LT$std..io..error..Error$u20$as$u20$core..fmt..Debug$GT$3fmt17hba33046985455df3E@Base 3.2.0
 _ZN58_$LT$std..io..stdio..Stdin$u20$as$u20$core..fmt..Debug$GT$3fmt17hdc4516952688b153E@Base 3.2.0
 _ZN58_$LT$std..io..stdio..StdinRaw$u20$as$u20$std..io..Read$GT$11read_to_end17h5df631bb4282fdb3E@Base 3.2.0
 _ZN58_$LT$std..io..stdio..StdinRaw$u20$as$u20$std..io..Read$GT$13read_vectored17h8e4b3c1eeac2cc43E@Base 3.2.0
 _ZN58_$LT$std..io..stdio..StdinRaw$u20$as$u20$std..io..Read$GT$14read_to_string17hcd56c95686ff45dbE@Base 3.2.0
 _ZN58_$LT$std..io..stdio..StdinRaw$u20$as$u20$std..io..Read$GT$4read17h6578ed0404045657E@Base 3.2.0
 _ZN58_$LT$std..io..util..Repeat$u20$as$u20$core..fmt..Debug$GT$3fmt17habdc673f728406c5E@Base 3.2.0
 _ZN58_$LT$std..net..tcp..TcpStream$u20$as$u20$std..io..Read$GT$13read_vectored17h9d59c4454def8e5cE@Base 3.2.0
 _ZN58_$LT$std..net..tcp..TcpStream$u20$as$u20$std..io..Read$GT$4read17h91caa63513c5cf9aE@Base 3.2.0
 _ZN58_$LT$std..path..Components$u20$as$u20$core..fmt..Debug$GT$3fmt17h34d054ae0422326eE@Base 3.2.0
 _ZN58_$LT$std..process..Command$u20$as$u20$core..fmt..Debug$GT$3fmt17he9b5c5269c062916E@Base 3.2.0
 _ZN58_$LT$std..sync..once..Once$u20$as$u20$core..fmt..Debug$GT$3fmt17h731de569e21540d0E@Base 3.2.0
 _ZN58_$LT$std..thread..ThreadId$u20$as$u20$core..fmt..Debug$GT$3fmt17hd250bad86515bf61E@Base 3.2.0
 _ZN58_$LT$std..time..SystemTime$u20$as$u20$core..fmt..Debug$GT$3fmt17h68c9ff00303d2dd3E@Base 3.2.0
 _ZN59_$LT$core..fmt..Arguments$u20$as$u20$core..fmt..Display$GT$3fmt17hc0fe0467f48952f5E@Base 3.2.0
 _ZN59_$LT$core..future..ResumeTy$u20$as$u20$core..fmt..Debug$GT$3fmt17h529da3f72b6c361dE@Base 3.2.0
 _ZN59_$LT$core..hash..sip..State$u20$as$u20$core..fmt..Debug$GT$3fmt17h07c084b9b7e9f157E@Base 3.2.0
 _ZN59_$LT$core..str..iter..Bytes$u20$as$u20$core..fmt..Debug$GT$3fmt17h237e8ff7848be721E@Base 3.2.0
 _ZN59_$LT$core..str..iter..Chars$u20$as$u20$core..fmt..Debug$GT$3fmt17h51491a2fef1afecdE@Base 3.2.0
 _ZN59_$LT$core..str..iter..Lines$u20$as$u20$core..fmt..Debug$GT$3fmt17h287d39f2cabb868fE@Base 3.2.0
 _ZN59_$LT$dyn$u20$core..any..Any$u20$as$u20$core..fmt..Debug$GT$3fmt17h1c21ddd7f3b13431E@Base 3.2.0
 _ZN59_$LT$f32$u20$as$u20$core..num..dec2flt..float..RawFloat$GT$13from_u64_bits17hbdb2a37287527cc7E@Base 3.2.0
 _ZN59_$LT$f32$u20$as$u20$core..num..dec2flt..float..RawFloat$GT$14integer_decode17hadbcbc9a5dcd8936E@Base 3.2.0
 _ZN59_$LT$f32$u20$as$u20$core..num..dec2flt..float..RawFloat$GT$15pow10_fast_path17hf0e3096356f8927fE@Base 3.2.0
 _ZN59_$LT$f32$u20$as$u20$core..num..dec2flt..float..RawFloat$GT$8classify17hd73f7e43236e537aE@Base 3.2.0
 _ZN59_$LT$f32$u20$as$u20$core..num..dec2flt..float..RawFloat$GT$8from_u6417hd1261832de147adbE@Base 3.2.0
 _ZN59_$LT$f64$u20$as$u20$core..num..dec2flt..float..RawFloat$GT$13from_u64_bits17hb48d006a6a9c7678E@Base 3.2.0
 _ZN59_$LT$f64$u20$as$u20$core..num..dec2flt..float..RawFloat$GT$14integer_decode17h2e3839ac270c808fE@Base 3.2.0
 _ZN59_$LT$f64$u20$as$u20$core..num..dec2flt..float..RawFloat$GT$15pow10_fast_path17h6c330d1a745a50d3E@Base 3.2.0
 _ZN59_$LT$f64$u20$as$u20$core..num..dec2flt..float..RawFloat$GT$8classify17hc77d33b02293526bE@Base 3.2.0
 _ZN59_$LT$f64$u20$as$u20$core..num..dec2flt..float..RawFloat$GT$8from_u6417h8bd2ada771dbf594E@Base 3.2.0
 _ZN59_$LT$gimli..constants..DwAt$u20$as$u20$core..fmt..Debug$GT$3fmt17hd2f651676c316804E@Base 3.2.0
 _ZN59_$LT$gimli..constants..DwCc$u20$as$u20$core..fmt..Debug$GT$3fmt17hda30e2b07d3237f1E@Base 3.2.0
 _ZN59_$LT$gimli..constants..DwDs$u20$as$u20$core..fmt..Debug$GT$3fmt17h653d58dc68cf5965E@Base 3.2.0
 _ZN59_$LT$gimli..constants..DwId$u20$as$u20$core..fmt..Debug$GT$3fmt17hdcf5801f490f98c1E@Base 3.2.0
 _ZN59_$LT$gimli..constants..DwOp$u20$as$u20$core..fmt..Debug$GT$3fmt17he637b54d3931a280E@Base 3.2.0
 _ZN59_$LT$gimli..constants..DwUt$u20$as$u20$core..fmt..Debug$GT$3fmt17hf024c70fa13b3793E@Base 3.2.0
 _ZN59_$LT$object..read..CodeView$u20$as$u20$core..fmt..Debug$GT$3fmt17h053857cd1f21bc31E@Base 3.2.0
 _ZN59_$LT$object..read..FileKind$u20$as$u20$core..fmt..Debug$GT$3fmt17h130a13c8a128ba04E@Base 3.2.0
 _ZN59_$LT$std..io..error..Custom$u20$as$u20$core..fmt..Debug$GT$3fmt17h6512a5b956d1973dE@Base 3.2.0
 _ZN59_$LT$std..io..error..Error$u20$as$u20$std..error..Error$GT$11description17h9117252c9c541ea7E@Base 3.2.0
 _ZN59_$LT$std..io..error..Error$u20$as$u20$std..error..Error$GT$5cause17h718ded118f251976E@Base 3.2.0
 _ZN59_$LT$std..io..error..Error$u20$as$u20$std..error..Error$GT$6source17h5fd703c295214a2aE@Base 3.2.0
 _ZN59_$LT$std..io..stdio..Stderr$u20$as$u20$core..fmt..Debug$GT$3fmt17h7c68aabd5fcd2635E@Base 3.2.0
 _ZN59_$LT$std..io..stdio..StdinLock$u20$as$u20$std..io..Read$GT$10read_exact17h20f761464f78979fE@Base 3.2.0
 _ZN59_$LT$std..io..stdio..StdinLock$u20$as$u20$std..io..Read$GT$11read_to_end17hf4fbe8e1936242b8E@Base 3.2.0
 _ZN59_$LT$std..io..stdio..StdinLock$u20$as$u20$std..io..Read$GT$13read_vectored17h4509815da9782acaE@Base 3.2.0
 _ZN59_$LT$std..io..stdio..StdinLock$u20$as$u20$std..io..Read$GT$14read_to_string17ha1f278d0be69b68bE@Base 3.2.0
 _ZN59_$LT$std..io..stdio..StdinLock$u20$as$u20$std..io..Read$GT$4read17h5236b929ee618286E@Base 3.2.0
 _ZN59_$LT$std..io..stdio..Stdout$u20$as$u20$core..fmt..Debug$GT$3fmt17h18756e3ae786f602E@Base 3.2.0
 _ZN59_$LT$std..net..ip..IpAddr$u20$as$u20$core..fmt..Display$GT$3fmt17hc2feb3ed495cb881E@Base 3.2.0
 _ZN59_$LT$std..net..ip..Ipv4Addr$u20$as$u20$core..fmt..Debug$GT$3fmt17h311f3d1836bed178E@Base 3.2.0
 _ZN59_$LT$std..net..ip..Ipv6Addr$u20$as$u20$core..fmt..Debug$GT$3fmt17hd6db5804b40e78e5E@Base 3.2.0
 _ZN59_$LT$std..net..tcp..TcpStream$u20$as$u20$std..io..Write$GT$14write_vectored17h3e9dbea2dc90a0bfE@Base 3.2.0
 _ZN59_$LT$std..net..tcp..TcpStream$u20$as$u20$std..io..Write$GT$5flush17h4502762a99f86e95E@Base 3.2.0
 _ZN59_$LT$std..net..tcp..TcpStream$u20$as$u20$std..io..Write$GT$5write17h40066f66270e79c4E@Base 3.2.0
 _ZN59_$LT$std..process..ChildStderr$u20$as$u20$std..io..Read$GT$13read_vectored17had4dfa48807d933dE@Base 3.2.0
 _ZN59_$LT$std..process..ChildStderr$u20$as$u20$std..io..Read$GT$4read17hc4b070072e75e0e4E@Base 3.2.0
 _ZN59_$LT$std..process..ChildStdin$u20$as$u20$std..io..Write$GT$14write_vectored17hb2100e4a5b873c61E@Base 3.2.0
 _ZN59_$LT$std..process..ChildStdin$u20$as$u20$std..io..Write$GT$17is_write_vectored17h76fa0860fb299974E@Base 3.2.0
 _ZN59_$LT$std..process..ChildStdin$u20$as$u20$std..io..Write$GT$5flush17he03a74f419942331E@Base 3.2.0
 _ZN59_$LT$std..process..ChildStdin$u20$as$u20$std..io..Write$GT$5write17hed19f1f6823c3b0dE@Base 3.2.0
 _ZN59_$LT$std..process..ChildStdout$u20$as$u20$std..io..Read$GT$13read_vectored17h55a26e96f6fb5e9cE@Base 3.2.0
 _ZN59_$LT$std..process..ChildStdout$u20$as$u20$std..io..Read$GT$4read17h3024f00f6add1c7eE@Base 3.2.0
 _ZN59_$LT$std..process..ExitCode$u20$as$u20$core..fmt..Debug$GT$3fmt17h1db517e5cba1720cE@Base 3.2.0
 _ZN5adler13adler32_slice17hda0ce97e77eee9faE@Base 3.2.0
 _ZN5adler7Adler3211write_slice17h9009990570c45069E@Base 3.2.0
 _ZN5alloc11collections5btree4node10splitpoint17hbd3620fab0276899E@Base 3.2.0
 _ZN5alloc11collections9vec_deque21VecDeque$LT$T$C$A$GT$9wrap_copy4diff17ha4a3b252079676a7E@Base 3.2.0
 _ZN5alloc3fmt6format17h719940b2d2859c3aE@Base 3.2.0
 _ZN5alloc3vec16Vec$LT$T$C$A$GT$11swap_remove13assert_failed17h5c7049f359a0305aE@Base 3.2.0
 _ZN5alloc3vec16Vec$LT$T$C$A$GT$6insert13assert_failed17h74800eb88603f010E@Base 3.2.0
 _ZN5alloc3vec16Vec$LT$T$C$A$GT$6remove13assert_failed17h8f60a0d97bed1e19E@Base 3.2.0
 _ZN5alloc3vec16Vec$LT$T$C$A$GT$9split_off13assert_failed17h3c3865328960aa03E@Base 3.2.0
 _ZN5alloc5alloc18handle_alloc_error17hd53418938d35f0f2E@Base 3.2.0
 _ZN5alloc5alloc18handle_alloc_error8ct_error17hfce7d361757f69aaE@Base 3.2.0
 _ZN5alloc5alloc18handle_alloc_error8rt_error17h01e36fa9ae583656E@Base 3.2.0
 _ZN5alloc6string104_$LT$impl$u20$core..convert..From$LT$alloc..string..String$GT$$u20$for$u20$alloc..vec..Vec$LT$u8$GT$$GT$4from17h3b5dd6ab22f92f5dE@Base 3.2.0
 _ZN5alloc6string13FromUtf8Error10into_bytes17h4721ac78de1f9e5bE@Base 3.2.0
 _ZN5alloc6string13FromUtf8Error10utf8_error17had0ccaec5b0e1688E@Base 3.2.0
 _ZN5alloc6string13FromUtf8Error8as_bytes17h9aecaf2b535cb362E@Base 3.2.0
 _ZN5alloc6string5Drain6as_str17hee552d45ac6d62c8E@Base 3.2.0
 _ZN5alloc6string6String10from_utf1617h538bbc7a8bf2559dE@Base 3.2.0
 _ZN5alloc6string6String11try_reserve17h3cdf56595e897948E@Base 3.2.0
 _ZN5alloc6string6String12insert_bytes17h46954eb6da73becaE@Base 3.2.0
 _ZN5alloc6string6String14into_raw_parts17h47ed3c05bed9c852E@Base 3.2.0
 _ZN5alloc6string6String15from_utf8_lossy17hacab4c3e1c037ef0E@Base 3.2.0
 _ZN5alloc6string6String17try_reserve_exact17hd942d9d45d78de72E@Base 3.2.0
 _ZN5alloc7raw_vec17capacity_overflow17hd16aa58ff04f02e3E@Base 3.2.0
 _ZN5gimli4read41_$LT$impl$u20$gimli..common..Register$GT$8from_u6417h43e53e89450b84a7E@Base 3.2.0
 _ZN5gimli4read4line7LineRow18apply_line_advance17h9da6a0c2e98e10a9E@Base 3.2.0
 _ZN5gimli4read4unit20allow_section_offset17haa80994beccb7d13E@Base 3.2.0
 _ZN5gimli4read6abbrev10Attributes3new17h09a676eafcc22d32E@Base 3.2.0
 _ZN5gimli4read6abbrev10Attributes4push17he2c17cc670706e06E@Base 3.2.0
 _ZN5gimli4read6abbrev12Abbreviation3new17h1bcea7af7644b65aE@Base 3.2.0
 _ZN5gimli4read6abbrev13Abbreviations5empty17h8d4cf26c6585dc6aE@Base 3.2.0
 _ZN5gimli4read6abbrev13Abbreviations6insert17h382b06d4c508f754E@Base 3.2.0
 _ZN5gimli6common9SectionId4name17h041e4a57a79f42f5E@Base 3.2.0
 _ZN5gimli6common9SectionId8dwo_name17h72306dabcd6b3bd8E@Base 3.2.0
 _ZN5gimli9constants10DwChildren13static_string17h6f9d48013213a31eE@Base 3.2.0
 _ZN5gimli9constants11DwDefaulted13static_string17h0b02e0625001bab9E@Base 3.2.0
 _ZN5gimli9constants12DwVirtuality13static_string17h904aeb8e623d62b3E@Base 3.2.0
 _ZN5gimli9constants4DwAt13static_string17h486bfff522e4e67eE@Base 3.2.0
 _ZN5gimli9constants4DwCc13static_string17h9a2a4c04427d6d19E@Base 3.2.0
 _ZN5gimli9constants4DwDs13static_string17hfb3b650faffb52b8E@Base 3.2.0
 _ZN5gimli9constants4DwId13static_string17h8feda4ff45b3039aE@Base 3.2.0
 _ZN5gimli9constants4DwOp13static_string17h9af4821bcda5e829E@Base 3.2.0
 _ZN5gimli9constants4DwUt13static_string17h712e0742c3e9d89bE@Base 3.2.0
 _ZN5gimli9constants5DwAte13static_string17h7018972b303f1441E@Base 3.2.0
 _ZN5gimli9constants5DwCfa13static_string17h74c3a656bd72570aE@Base 3.2.0
 _ZN5gimli9constants5DwDsc13static_string17h1ed44bd5f4441ac2E@Base 3.2.0
 _ZN5gimli9constants5DwEnd13static_string17h0d515ba32c237367E@Base 3.2.0
 _ZN5gimli9constants5DwIdx13static_string17hcb179a07578d83a5E@Base 3.2.0
 _ZN5gimli9constants5DwInl13static_string17h2eb775dc1469cac2E@Base 3.2.0
 _ZN5gimli9constants5DwLle13static_string17h41677a22c9df36a6E@Base 3.2.0
 _ZN5gimli9constants5DwLne13static_string17h2f61e50bb377ec8bE@Base 3.2.0
 _ZN5gimli9constants5DwLns13static_string17hc4e863e9511d9461E@Base 3.2.0
 _ZN5gimli9constants5DwOrd13static_string17h4804e6f7251c57cfE@Base 3.2.0
 _ZN5gimli9constants5DwRle13static_string17h5c3e25ec32a5515aE@Base 3.2.0
 _ZN5gimli9constants5DwTag13static_string17h7c9efd6cb91fc87dE@Base 3.2.0
 _ZN5gimli9constants5DwVis13static_string17h9b27cd774dd9ceffE@Base 3.2.0
 _ZN5gimli9constants6DwAddr13static_string17h47ab23a3a8df9a4cE@Base 3.2.0
 _ZN5gimli9constants6DwEhPe13static_string17hfcabf0d69fc22355E@Base 3.2.0
 _ZN5gimli9constants6DwEhPe17is_valid_encoding17h774d9efb8770fb12E@Base 3.2.0
 _ZN5gimli9constants6DwForm13static_string17h157de78ef2c4b87cE@Base 3.2.0
 _ZN5gimli9constants6DwLang13static_string17h7e3b79dd00e1114bE@Base 3.2.0
 _ZN5gimli9constants6DwLang19default_lower_bound17h7a72007e1b17bfc1E@Base 3.2.0
 _ZN5gimli9constants6DwLnct13static_string17h491676e343d79378E@Base 3.2.0
 _ZN5gimli9constants7DwMacro13static_string17h5cf5146d10d21041E@Base 3.2.0
 _ZN5gimli9constants8DwAccess13static_string17h9b6ba160387134a0E@Base 3.2.0
 _ZN60_$LT$alloc..string..String$u20$as$u20$core..clone..Clone$GT$10clone_from17he594ff031ef24105E@Base 3.2.0
 _ZN60_$LT$alloc..string..String$u20$as$u20$core..clone..Clone$GT$5clone17he772247c32d6d4b3E@Base 3.2.0
 _ZN60_$LT$core..alloc..AllocError$u20$as$u20$core..fmt..Debug$GT$3fmt17h1e20b4a288b0387eE@Base 3.2.0
 _ZN60_$LT$core..cell..BorrowError$u20$as$u20$core..fmt..Debug$GT$3fmt17h4ae533017b941758E@Base 3.2.0
 _ZN60_$LT$core..char..EscapeDebug$u20$as$u20$core..fmt..Debug$GT$3fmt17h8ae1eab6b4a37d1aE@Base 3.2.0
 _ZN60_$LT$core..char..ToLowercase$u20$as$u20$core..fmt..Debug$GT$3fmt17hb3f8ca5b8f687c00E@Base 3.2.0
 _ZN60_$LT$core..char..ToUppercase$u20$as$u20$core..fmt..Debug$GT$3fmt17h0208d7ad9062b923E@Base 3.2.0
 _ZN60_$LT$core..convert..Infallible$u20$as$u20$core..cmp..Ord$GT$3cmp17h0f64e56291bf4a2bE@Base 3.2.0
 _ZN60_$LT$core..task..wake..Waker$u20$as$u20$core..fmt..Debug$GT$3fmt17ha731a5c29772e3e1E@Base 3.2.0
 _ZN60_$LT$gimli..common..Encoding$u20$as$u20$core..fmt..Debug$GT$3fmt17he14abb4e2dabf970E@Base 3.2.0
 _ZN60_$LT$gimli..common..Register$u20$as$u20$core..fmt..Debug$GT$3fmt17h5eae4a66dbe6232eE@Base 3.2.0
 _ZN60_$LT$gimli..constants..DwAte$u20$as$u20$core..fmt..Debug$GT$3fmt17h9a9350bf04b5fb7fE@Base 3.2.0
 _ZN60_$LT$gimli..constants..DwCfa$u20$as$u20$core..fmt..Debug$GT$3fmt17haf44e613329f7e28E@Base 3.2.0
 _ZN60_$LT$gimli..constants..DwDsc$u20$as$u20$core..fmt..Debug$GT$3fmt17hba08d24311262369E@Base 3.2.0
 _ZN60_$LT$gimli..constants..DwEnd$u20$as$u20$core..fmt..Debug$GT$3fmt17hbfa3f3c6a41bdeedE@Base 3.2.0
 _ZN60_$LT$gimli..constants..DwIdx$u20$as$u20$core..fmt..Debug$GT$3fmt17h6b4cd50113105999E@Base 3.2.0
 _ZN60_$LT$gimli..constants..DwInl$u20$as$u20$core..fmt..Debug$GT$3fmt17he1c57dd114a79d14E@Base 3.2.0
 _ZN60_$LT$gimli..constants..DwLle$u20$as$u20$core..fmt..Debug$GT$3fmt17ha28288b32daa586fE@Base 3.2.0
 _ZN60_$LT$gimli..constants..DwLne$u20$as$u20$core..fmt..Debug$GT$3fmt17h3c4387b5cf0b3da4E@Base 3.2.0
 _ZN60_$LT$gimli..constants..DwLns$u20$as$u20$core..fmt..Debug$GT$3fmt17he8ad99717b78eac4E@Base 3.2.0
 _ZN60_$LT$gimli..constants..DwOrd$u20$as$u20$core..fmt..Debug$GT$3fmt17h0a1a5795959aa9f5E@Base 3.2.0
 _ZN60_$LT$gimli..constants..DwRle$u20$as$u20$core..fmt..Debug$GT$3fmt17h5ad894756149b64aE@Base 3.2.0
 _ZN60_$LT$gimli..constants..DwTag$u20$as$u20$core..fmt..Debug$GT$3fmt17ha728563e6a42417eE@Base 3.2.0
 _ZN60_$LT$gimli..constants..DwVis$u20$as$u20$core..fmt..Debug$GT$3fmt17hf1049836f60665a5E@Base 3.2.0
 _ZN60_$LT$object..pe..ImageSymbol$u20$as$u20$core..fmt..Debug$GT$3fmt17h686f08f8aee1f6e3E@Base 3.2.0
 _ZN60_$LT$object..read..ObjectMap$u20$as$u20$core..fmt..Debug$GT$3fmt17haae618f085efce61E@Base 3.2.0
 _ZN60_$LT$std..ffi..os_str..OsStr$u20$as$u20$core..fmt..Debug$GT$3fmt17hd043eeaa15ae2ba4E@Base 3.2.0
 _ZN60_$LT$std..fs..File$u20$as$u20$std..os..unix..fs..FileExt$GT$7read_at17ha1de91c3911e8ba1E@Base 3.2.0
 _ZN60_$LT$std..fs..File$u20$as$u20$std..os..unix..fs..FileExt$GT$8write_at17hc958419cb843320eE@Base 3.2.0
 _ZN60_$LT$std..io..error..Error$u20$as$u20$core..fmt..Display$GT$3fmt17h6c140b550c691dd3E@Base 3.2.0
 _ZN60_$LT$std..io..stdio..StderrRaw$u20$as$u20$std..io..Write$GT$14write_vectored17h8169f7173b845449E@Base 3.2.0
 _ZN60_$LT$std..io..stdio..StderrRaw$u20$as$u20$std..io..Write$GT$18write_all_vectored17h7c157f62aae38de4E@Base 3.2.0
 _ZN60_$LT$std..io..stdio..StderrRaw$u20$as$u20$std..io..Write$GT$5flush17h3f776bb791da1daaE@Base 3.2.0
 _ZN60_$LT$std..io..stdio..StderrRaw$u20$as$u20$std..io..Write$GT$5write17ha265c21c3857d01dE@Base 3.2.0
 _ZN60_$LT$std..io..stdio..StderrRaw$u20$as$u20$std..io..Write$GT$9write_all17hd51c7eb1b6137363E@Base 3.2.0
 _ZN60_$LT$std..io..stdio..StderrRaw$u20$as$u20$std..io..Write$GT$9write_fmt17hd3bc43d9ec55b45cE@Base 3.2.0
 _ZN60_$LT$std..io..stdio..StdoutRaw$u20$as$u20$std..io..Write$GT$14write_vectored17he23d08de0ef6cbbaE@Base 3.2.0
 _ZN60_$LT$std..io..stdio..StdoutRaw$u20$as$u20$std..io..Write$GT$18write_all_vectored17h2cb7edfd4296bbfaE@Base 3.2.0
 _ZN60_$LT$std..io..stdio..StdoutRaw$u20$as$u20$std..io..Write$GT$5flush17h84e6c23c9b5d0a0eE@Base 3.2.0
 _ZN60_$LT$std..io..stdio..StdoutRaw$u20$as$u20$std..io..Write$GT$5write17h5ce4de7519c43e42E@Base 3.2.0
 _ZN60_$LT$std..io..stdio..StdoutRaw$u20$as$u20$std..io..Write$GT$9write_all17h2bf3b2eed681d2faE@Base 3.2.0
 _ZN60_$LT$std..io..stdio..StdoutRaw$u20$as$u20$std..io..Write$GT$9write_fmt17hfe03f36b465b0a68E@Base 3.2.0
 _ZN60_$LT$std..net..tcp..Incoming$u20$as$u20$core..fmt..Debug$GT$3fmt17h90adcf3b530c7cf0E@Base 3.2.0
 _ZN60_$LT$std..time..Instant$u20$as$u20$core..ops..arith..Sub$GT$3sub17h7e7836dd6f673239E@Base 3.2.0
 _ZN61_$LT$$RF$std..io..stdio..Stderr$u20$as$u20$std..io..Write$GT$14write_vectored17hdfeb62e39f87b4d7E@Base 3.2.0
 _ZN61_$LT$$RF$std..io..stdio..Stderr$u20$as$u20$std..io..Write$GT$18write_all_vectored17h04ba606d6a353706E@Base 3.2.0
 _ZN61_$LT$$RF$std..io..stdio..Stderr$u20$as$u20$std..io..Write$GT$5flush17he3fc2157f3b10e1bE@Base 3.2.0
 _ZN61_$LT$$RF$std..io..stdio..Stderr$u20$as$u20$std..io..Write$GT$5write17h9503dbc246985c31E@Base 3.2.0
 _ZN61_$LT$$RF$std..io..stdio..Stderr$u20$as$u20$std..io..Write$GT$9write_all17h8b229dcacf9a4889E@Base 3.2.0
 _ZN61_$LT$$RF$std..io..stdio..Stderr$u20$as$u20$std..io..Write$GT$9write_fmt17h48ed4dfa6786204dE@Base 3.2.0
 _ZN61_$LT$$RF$std..io..stdio..Stdout$u20$as$u20$std..io..Write$GT$14write_vectored17h918fad6bf933aa1dE@Base 3.2.0
 _ZN61_$LT$$RF$std..io..stdio..Stdout$u20$as$u20$std..io..Write$GT$18write_all_vectored17ha47c0d43aec7a849E@Base 3.2.0
 _ZN61_$LT$$RF$std..io..stdio..Stdout$u20$as$u20$std..io..Write$GT$5flush17h38562831b806a636E@Base 3.2.0
 _ZN61_$LT$$RF$std..io..stdio..Stdout$u20$as$u20$std..io..Write$GT$5write17hd9858f530d723566E@Base 3.2.0
 _ZN61_$LT$$RF$std..io..stdio..Stdout$u20$as$u20$std..io..Write$GT$9write_all17h2e02881e160a1c57E@Base 3.2.0
 _ZN61_$LT$$RF$std..io..stdio..Stdout$u20$as$u20$std..io..Write$GT$9write_fmt17h7069ed7fdcf14c80E@Base 3.2.0
 _ZN61_$LT$core..cell..BorrowError$u20$as$u20$std..error..Error$GT$11description17haf94488d681eeaf2E@Base 3.2.0
 _ZN61_$LT$core..num..diy_float..Fp$u20$as$u20$core..fmt..Debug$GT$3fmt17ha5834b166e77a4b3E@Base 3.2.0
 _ZN61_$LT$core..num..flt2dec..Sign$u20$as$u20$core..fmt..Debug$GT$3fmt17h1c933dd74e95621eE@Base 3.2.0
 _ZN61_$LT$gimli..common..SectionId$u20$as$u20$core..fmt..Debug$GT$3fmt17hb4aebd799727bc21E@Base 3.2.0
 _ZN61_$LT$gimli..constants..DwAddr$u20$as$u20$core..fmt..Debug$GT$3fmt17h52c76d910bba4afeE@Base 3.2.0
 _ZN61_$LT$gimli..constants..DwAt$u20$as$u20$core..fmt..Display$GT$3fmt17hdbd8f4d6d4608265E@Base 3.2.0
 _ZN61_$LT$gimli..constants..DwCc$u20$as$u20$core..fmt..Display$GT$3fmt17h58b2ecafe7fc9ff4E@Base 3.2.0
 _ZN61_$LT$gimli..constants..DwDs$u20$as$u20$core..fmt..Display$GT$3fmt17h3549eb3095daa944E@Base 3.2.0
 _ZN61_$LT$gimli..constants..DwEhPe$u20$as$u20$core..fmt..Debug$GT$3fmt17hf64b9304cf6e8246E@Base 3.2.0
 _ZN61_$LT$gimli..constants..DwForm$u20$as$u20$core..fmt..Debug$GT$3fmt17h5f1823ba2b50d8b1E@Base 3.2.0
 _ZN61_$LT$gimli..constants..DwId$u20$as$u20$core..fmt..Display$GT$3fmt17h2a29076149312f15E@Base 3.2.0
 _ZN61_$LT$gimli..constants..DwLang$u20$as$u20$core..fmt..Debug$GT$3fmt17haffe67b7e5cf0302E@Base 3.2.0
 _ZN61_$LT$gimli..constants..DwLnct$u20$as$u20$core..fmt..Debug$GT$3fmt17h2d25c21e6510ac74E@Base 3.2.0
 _ZN61_$LT$gimli..constants..DwOp$u20$as$u20$core..fmt..Display$GT$3fmt17hc23acd2725c6fbe4E@Base 3.2.0
 _ZN61_$LT$gimli..constants..DwUt$u20$as$u20$core..fmt..Display$GT$3fmt17h9443d6863bed5d3aE@Base 3.2.0
 _ZN61_$LT$object..read..Relocation$u20$as$u20$core..fmt..Debug$GT$3fmt17h15d8fb93d534874dE@Base 3.2.0
 _ZN61_$LT$rustc_demangle..Demangle$u20$as$u20$core..fmt..Debug$GT$3fmt17h546870a8cacfa4e2E@Base 3.2.0
 _ZN61_$LT$std..backtrace..RawFrame$u20$as$u20$core..fmt..Debug$GT$3fmt17h253a4dd1f21a3d71E@Base 3.2.0
 _ZN61_$LT$std..env..JoinPathsError$u20$as$u20$core..fmt..Debug$GT$3fmt17h35078ec71325ac74E@Base 3.2.0
 _ZN61_$LT$std..ffi..c_str..CString$u20$as$u20$core..fmt..Debug$GT$3fmt17hfe730ec2e171bd49E@Base 3.2.0
 _ZN61_$LT$std..io..stdio..StderrLock$u20$as$u20$std..io..Write$GT$14write_vectored17h9e8896193a5e27faE@Base 3.2.0
 _ZN61_$LT$std..io..stdio..StderrLock$u20$as$u20$std..io..Write$GT$18write_all_vectored17h2552334591834436E@Base 3.2.0
 _ZN61_$LT$std..io..stdio..StderrLock$u20$as$u20$std..io..Write$GT$5flush17hde50077fe29fea8cE@Base 3.2.0
 _ZN61_$LT$std..io..stdio..StderrLock$u20$as$u20$std..io..Write$GT$5write17h71152c2b96ef5b12E@Base 3.2.0
 _ZN61_$LT$std..io..stdio..StderrLock$u20$as$u20$std..io..Write$GT$9write_all17h79e50ef807541931E@Base 3.2.0
 _ZN61_$LT$std..io..stdio..StdoutLock$u20$as$u20$std..io..Write$GT$14write_vectored17h2deba1c1512a7be7E@Base 3.2.0
 _ZN61_$LT$std..io..stdio..StdoutLock$u20$as$u20$std..io..Write$GT$18write_all_vectored17h742380009aa56805E@Base 3.2.0
 _ZN61_$LT$std..io..stdio..StdoutLock$u20$as$u20$std..io..Write$GT$5flush17h8fde214733423bdcE@Base 3.2.0
 _ZN61_$LT$std..io..stdio..StdoutLock$u20$as$u20$std..io..Write$GT$5write17h1ade9026b7144973E@Base 3.2.0
 _ZN61_$LT$std..io..stdio..StdoutLock$u20$as$u20$std..io..Write$GT$9write_all17hc21a087d6893ca16E@Base 3.2.0
 _ZN61_$LT$std..net..ip..Ipv4Addr$u20$as$u20$core..fmt..Display$GT$3fmt17h64d4a28a98ad1850E@Base 3.2.0
 _ZN61_$LT$std..net..ip..Ipv6Addr$u20$as$u20$core..fmt..Display$GT$3fmt17h0e004df37e5bf7e5E@Base 3.2.0
 _ZN61_$LT$std..net..tcp..TcpStream$u20$as$u20$core..fmt..Debug$GT$3fmt17h113a410fdd277bedE@Base 3.2.0
 _ZN61_$LT$std..net..udp..UdpSocket$u20$as$u20$core..fmt..Debug$GT$3fmt17ha8741ef5f4d5af7fE@Base 3.2.0
 _ZN61_$LT$std..process..ChildStdin$u20$as$u20$core..fmt..Debug$GT$3fmt17h6acf20d5351be7fbE@Base 3.2.0
 _ZN61_$LT$std..process..ExitStatus$u20$as$u20$core..fmt..Debug$GT$3fmt17h86beec438dfadaffE@Base 3.2.0
 _ZN61_$LT$std..sys..unix..fs..File$u20$as$u20$core..fmt..Debug$GT$3fmt17hf44e76dd20711aa8E@Base 3.2.0
 _ZN62_$LT$$RF$std..net..tcp..TcpStream$u20$as$u20$std..io..Read$GT$13read_vectored17hc1a04a942f06ef8dE@Base 3.2.0
 _ZN62_$LT$$RF$std..net..tcp..TcpStream$u20$as$u20$std..io..Read$GT$4read17he5d1123ffdebf5d1E@Base 3.2.0
 _ZN62_$LT$alloc..string..Drain$u20$as$u20$core..ops..drop..Drop$GT$4drop17heb75a5b93b388573E@Base 3.2.0
 _ZN62_$LT$core..alloc..AllocError$u20$as$u20$core..fmt..Display$GT$3fmt17h9c68732a1f02f6bbE@Base 3.2.0
 _ZN62_$LT$core..cell..BorrowError$u20$as$u20$core..fmt..Display$GT$3fmt17h838b3f007bc99268E@Base 3.2.0
 _ZN62_$LT$core..char..EscapeDebug$u20$as$u20$core..fmt..Display$GT$3fmt17he1833239b8f4ef13E@Base 3.2.0
 _ZN62_$LT$core..char..EscapeDefault$u20$as$u20$core..fmt..Debug$GT$3fmt17hd4fd4075e110e333E@Base 3.2.0
 _ZN62_$LT$core..char..EscapeUnicode$u20$as$u20$core..fmt..Debug$GT$3fmt17heeb846771b09bc9aE@Base 3.2.0
 _ZN62_$LT$core..char..ToLowercase$u20$as$u20$core..fmt..Display$GT$3fmt17h1dc13d916f1f4fc0E@Base 3.2.0
 _ZN62_$LT$core..char..ToUppercase$u20$as$u20$core..fmt..Display$GT$3fmt17h0cb0804094068095E@Base 3.2.0
 _ZN62_$LT$core..convert..Infallible$u20$as$u20$core..fmt..Debug$GT$3fmt17hea47752909b8e4faE@Base 3.2.0
 _ZN62_$LT$core..num..bignum..Big32x40$u20$as$u20$core..cmp..Ord$GT$3cmp17hf0b6a51399febe6dE@Base 3.2.0
 _ZN62_$LT$core..str..iter..LinesAny$u20$as$u20$core..fmt..Debug$GT$3fmt17h0efc0479f8880253E@Base 3.2.0
 _ZN62_$LT$core..task..wake..Context$u20$as$u20$core..fmt..Debug$GT$3fmt17h57f9e8f2a3aa59adE@Base 3.2.0
 _ZN62_$LT$core..time..Duration$u20$as$u20$core..ops..arith..Add$GT$3add17hf1c392749caadf23E@Base 3.2.0
 _ZN62_$LT$core..time..Duration$u20$as$u20$core..ops..arith..Sub$GT$3sub17hf1773802b306bf46E@Base 3.2.0
 _ZN62_$LT$gimli..constants..DwAte$u20$as$u20$core..fmt..Display$GT$3fmt17hccb3f42930436aa8E@Base 3.2.0
 _ZN62_$LT$gimli..constants..DwCfa$u20$as$u20$core..fmt..Display$GT$3fmt17hdab1f8e71c7d9871E@Base 3.2.0
 _ZN62_$LT$gimli..constants..DwDsc$u20$as$u20$core..fmt..Display$GT$3fmt17h2f6240421d7fd0eeE@Base 3.2.0
 _ZN62_$LT$gimli..constants..DwEnd$u20$as$u20$core..fmt..Display$GT$3fmt17ha69538bd10334e32E@Base 3.2.0
 _ZN62_$LT$gimli..constants..DwIdx$u20$as$u20$core..fmt..Display$GT$3fmt17he0dd943b7f8b352fE@Base 3.2.0
 _ZN62_$LT$gimli..constants..DwInl$u20$as$u20$core..fmt..Display$GT$3fmt17hbe4691c9d81ba280E@Base 3.2.0
 _ZN62_$LT$gimli..constants..DwLle$u20$as$u20$core..fmt..Display$GT$3fmt17h5d8be9044850da15E@Base 3.2.0
 _ZN62_$LT$gimli..constants..DwLne$u20$as$u20$core..fmt..Display$GT$3fmt17h3fbfcbe063bda007E@Base 3.2.0
 _ZN62_$LT$gimli..constants..DwLns$u20$as$u20$core..fmt..Display$GT$3fmt17h207a373c38cfeccbE@Base 3.2.0
 _ZN62_$LT$gimli..constants..DwMacro$u20$as$u20$core..fmt..Debug$GT$3fmt17hea7cd056a93da51fE@Base 3.2.0
 _ZN62_$LT$gimli..constants..DwOrd$u20$as$u20$core..fmt..Display$GT$3fmt17h09dd8e395c195e82E@Base 3.2.0
 _ZN62_$LT$gimli..constants..DwRle$u20$as$u20$core..fmt..Display$GT$3fmt17h904d57714ac6255fE@Base 3.2.0
 _ZN62_$LT$gimli..constants..DwTag$u20$as$u20$core..fmt..Display$GT$3fmt17hcd6d63d1630033bbE@Base 3.2.0
 _ZN62_$LT$gimli..constants..DwVis$u20$as$u20$core..fmt..Display$GT$3fmt17h8fc59769c47e39b3E@Base 3.2.0
 _ZN62_$LT$gimli..read..cfi..Pointer$u20$as$u20$core..fmt..Debug$GT$3fmt17h88bd9b238e9f2abcE@Base 3.2.0
 _ZN62_$LT$object..common..FileFlags$u20$as$u20$core..fmt..Debug$GT$3fmt17ha638488712479feaE@Base 3.2.0
 _ZN62_$LT$object..endian..BigEndian$u20$as$u20$core..fmt..Debug$GT$3fmt17hb324104d88ba6352E@Base 3.2.0
 _ZN62_$LT$object..pe..ImageSymbolEx$u20$as$u20$core..fmt..Debug$GT$3fmt17h0843e8abaacbd52cE@Base 3.2.0
 _ZN62_$LT$object..read..SymbolIndex$u20$as$u20$core..fmt..Debug$GT$3fmt17h5bff65758bff00b2E@Base 3.2.0
 _ZN62_$LT$object..read..util..Bytes$u20$as$u20$core..fmt..Debug$GT$3fmt17h39973e03223e4199E@Base 3.2.0
 _ZN62_$LT$std..backtrace..Backtrace$u20$as$u20$core..fmt..Debug$GT$3fmt17h73f8c4ee2cf94b83E@Base 3.2.0
 _ZN62_$LT$std..env..JoinPathsError$u20$as$u20$std..error..Error$GT$11description17hd771d38c45c25992E@Base 3.2.0
 _ZN62_$LT$std..ffi..c_str..CStr$u20$as$u20$core..cmp..PartialEq$GT$2eq17hfcffcd5b1b154adeE@Base 3.2.0
 _ZN62_$LT$std..ffi..c_str..NulError$u20$as$u20$core..fmt..Debug$GT$3fmt17h2388d72d634015e0E@Base 3.2.0
 _ZN62_$LT$std..io..error..ErrorKind$u20$as$u20$core..fmt..Debug$GT$3fmt17hb62b0e56ae8d5e5eE@Base 3.2.0
 _ZN62_$LT$std..io..readbuf..ReadBuf$u20$as$u20$core..fmt..Debug$GT$3fmt17h89c1fda860d79432E@Base 3.2.0
 _ZN62_$LT$std..io..stdio..StdinLock$u20$as$u20$core..fmt..Debug$GT$3fmt17h417e906ae6d1ead5E@Base 3.2.0
 _ZN62_$LT$std..io..stdio..StdinLock$u20$as$u20$std..io..BufRead$GT$10read_until17hbe97f1cc34544ce6E@Base 3.2.0
 _ZN62_$LT$std..io..stdio..StdinLock$u20$as$u20$std..io..BufRead$GT$7consume17hc24bfda1e10ead67E@Base 3.2.0
 _ZN62_$LT$std..io..stdio..StdinLock$u20$as$u20$std..io..BufRead$GT$8fill_buf17ha0c92f10107091aaE@Base 3.2.0
 _ZN62_$LT$std..io..stdio..StdinLock$u20$as$u20$std..io..BufRead$GT$9read_line17haf0060df453d6aa3E@Base 3.2.0
 _ZN62_$LT$std..process..ChildStderr$u20$as$u20$core..fmt..Debug$GT$3fmt17hccef4de0098661bbE@Base 3.2.0
 _ZN62_$LT$std..process..ChildStdout$u20$as$u20$core..fmt..Debug$GT$3fmt17h420a56a2d60f6092E@Base 3.2.0
 _ZN62_$LT$std..process..CommandArgs$u20$as$u20$core..fmt..Debug$GT$3fmt17hd50817500a7be6b7E@Base 3.2.0
 _ZN62_$LT$std..sys..unix..stdio..Stdin$u20$as$u20$std..io..Read$GT$13read_vectored17h09a3289c5dd72c90E@Base 3.2.0
 _ZN62_$LT$std..sys..unix..stdio..Stdin$u20$as$u20$std..io..Read$GT$4read17h1132c730d03a8bbaE@Base 3.2.0
 _ZN63_$LT$$RF$std..net..tcp..TcpStream$u20$as$u20$std..io..Write$GT$14write_vectored17ha5ee298eca43ae85E@Base 3.2.0
 _ZN63_$LT$$RF$std..net..tcp..TcpStream$u20$as$u20$std..io..Write$GT$5flush17h08c87efd8f86194fE@Base 3.2.0
 _ZN63_$LT$$RF$std..net..tcp..TcpStream$u20$as$u20$std..io..Write$GT$5write17h939716142a4ffea4E@Base 3.2.0
 _ZN63_$LT$$RF$std..process..ChildStdin$u20$as$u20$std..io..Write$GT$14write_vectored17hf0cba95f5aa76ebfE@Base 3.2.0
 _ZN63_$LT$$RF$std..process..ChildStdin$u20$as$u20$std..io..Write$GT$17is_write_vectored17hacb32c26d037f658E@Base 3.2.0
 _ZN63_$LT$$RF$std..process..ChildStdin$u20$as$u20$std..io..Write$GT$5flush17h1341db2a44a6b2c4E@Base 3.2.0
 _ZN63_$LT$$RF$std..process..ChildStdin$u20$as$u20$std..io..Write$GT$5write17h4ba7b8cd60ce0751E@Base 3.2.0
 _ZN63_$LT$core..ascii..EscapeDefault$u20$as$u20$core..fmt..Debug$GT$3fmt17hd0e9a0f0985894daE@Base 3.2.0
 _ZN63_$LT$core..cell..BorrowMutError$u20$as$u20$core..fmt..Debug$GT$3fmt17h939d172a0348faabE@Base 3.2.0
 _ZN63_$LT$core..convert..Infallible$u20$as$u20$std..error..Error$GT$11description17h1d1eb3707010b929E@Base 3.2.0
 _ZN63_$LT$core..ffi..VaListImpl$u20$as$u20$core..ops..drop..Drop$GT$4drop17h826d4693535e2fb9E@Base 3.2.0
 _ZN63_$LT$core..hash..sip..SipHasher$u20$as$u20$core..fmt..Debug$GT$3fmt17h0f6db84785ea6127E@Base 3.2.0
 _ZN63_$LT$core..task..wake..RawWaker$u20$as$u20$core..fmt..Debug$GT$3fmt17hffa2928234120cbaE@Base 3.2.0
 _ZN63_$LT$gimli..constants..DwAccess$u20$as$u20$core..fmt..Debug$GT$3fmt17hcb538f30eccbf8d9E@Base 3.2.0
 _ZN63_$LT$gimli..constants..DwAddr$u20$as$u20$core..fmt..Display$GT$3fmt17hfe11231c0e443a02E@Base 3.2.0
 _ZN63_$LT$gimli..constants..DwEhPe$u20$as$u20$core..fmt..Display$GT$3fmt17h8b1e88e854f4af5fE@Base 3.2.0
 _ZN63_$LT$gimli..constants..DwForm$u20$as$u20$core..fmt..Display$GT$3fmt17h40a0e78b09093797E@Base 3.2.0
 _ZN63_$LT$gimli..constants..DwLang$u20$as$u20$core..fmt..Display$GT$3fmt17h8db5d353f4ceea98E@Base 3.2.0
 _ZN63_$LT$gimli..constants..DwLnct$u20$as$u20$core..fmt..Display$GT$3fmt17h0e6c9a360520c3dfE@Base 3.2.0
 _ZN63_$LT$gimli..read..line..LineRow$u20$as$u20$core..fmt..Debug$GT$3fmt17h59a016f7d9c6acd6E@Base 3.2.0
 _ZN63_$LT$object..common..ComdatKind$u20$as$u20$core..fmt..Debug$GT$3fmt17hf32e8729563a8c19E@Base 3.2.0
 _ZN63_$LT$object..common..SymbolKind$u20$as$u20$core..fmt..Debug$GT$3fmt17h6ffef573f418f54eE@Base 3.2.0
 _ZN63_$LT$object..endian..Endianness$u20$as$u20$core..fmt..Debug$GT$3fmt17hef264b8763d0fea7E@Base 3.2.0
 _ZN63_$LT$object..pe..ImageDebugMisc$u20$as$u20$core..fmt..Debug$GT$3fmt17hdbf89f43832e78c6E@Base 3.2.0
 _ZN63_$LT$object..pe..ImageDosHeader$u20$as$u20$core..fmt..Debug$GT$3fmt17hee14c263c80a42e2E@Base 3.2.0
 _ZN63_$LT$object..pe..ImageOs2Header$u20$as$u20$core..fmt..Debug$GT$3fmt17h62b0504a2b2c9690E@Base 3.2.0
 _ZN63_$LT$object..pe..ImageVxdHeader$u20$as$u20$core..fmt..Debug$GT$3fmt17h405554bae8917161E@Base 3.2.0
 _ZN63_$LT$object..read..SectionIndex$u20$as$u20$core..fmt..Debug$GT$3fmt17h321a97bb6a209d0dE@Base 3.2.0
 _ZN63_$LT$rustc_demangle..Demangle$u20$as$u20$core..fmt..Display$GT$3fmt17h65aee32de3a19480E@Base 3.2.0
 _ZN63_$LT$std..env..JoinPathsError$u20$as$u20$core..fmt..Display$GT$3fmt17hfa74d3c89cce9a81E@Base 3.2.0
 _ZN63_$LT$std..ffi..c_str..CStr$u20$as$u20$core..cmp..PartialOrd$GT$11partial_cmp17h70ab5e9a23bb6866E@Base 3.2.0
 _ZN63_$LT$std..ffi..c_str..NulError$u20$as$u20$std..error..Error$GT$11description17h772c27dc88081cf8E@Base 3.2.0
 _ZN63_$LT$std..ffi..os_str..OsString$u20$as$u20$core..fmt..Debug$GT$3fmt17h3cb02feb7c65f763E@Base 3.2.0
 _ZN63_$LT$std..io..stdio..StderrLock$u20$as$u20$core..fmt..Debug$GT$3fmt17hda960565e5ec631bE@Base 3.2.0
 _ZN63_$LT$std..io..stdio..StdoutLock$u20$as$u20$core..fmt..Debug$GT$3fmt17haf9b4bbe6863f4a0E@Base 3.2.0
 _ZN63_$LT$std..net..addr..SocketAddr$u20$as$u20$core..fmt..Debug$GT$3fmt17hee92b1e2077f115eE@Base 3.2.0
 _ZN63_$LT$std..net..addr..SocketAddrV4$u20$as$u20$core..cmp..Ord$GT$3cmp17h7cae9c072e42132eE@Base 3.2.0
 _ZN63_$LT$std..net..addr..SocketAddrV6$u20$as$u20$core..cmp..Ord$GT$3cmp17hbf1d28efb9ca5303E@Base 3.2.0
 _ZN63_$LT$std..net..tcp..TcpListener$u20$as$u20$core..fmt..Debug$GT$3fmt17h038eb6df5a532922E@Base 3.2.0
 _ZN63_$LT$std..panic..BacktraceStyle$u20$as$u20$core..fmt..Debug$GT$3fmt17hd31552394c64681cE@Base 3.2.0
 _ZN63_$LT$std..path..PrefixComponent$u20$as$u20$core..fmt..Debug$GT$3fmt17h8432629e0cefd893E@Base 3.2.0
 _ZN63_$LT$std..process..ExitStatus$u20$as$u20$core..fmt..Display$GT$3fmt17h5622d9f4506b8e89E@Base 3.2.0
 _ZN63_$LT$std..sync..mpsc..RecvError$u20$as$u20$core..fmt..Debug$GT$3fmt17h7512cafcd515f766E@Base 3.2.0
 _ZN63_$LT$std..sync..once..OnceState$u20$as$u20$core..fmt..Debug$GT$3fmt17heeed231b754e44ffE@Base 3.2.0
 _ZN63_$LT$std..sys..unix..args..Args$u20$as$u20$core..fmt..Debug$GT$3fmt17h7aab647f620e1998E@Base 3.2.0
 _ZN63_$LT$std..thread..scoped..Scope$u20$as$u20$core..fmt..Debug$GT$3fmt17h6bf04033f659612fE@Base 3.2.0
 _ZN63_$LT$std..time..SystemTimeError$u20$as$u20$core..fmt..Debug$GT$3fmt17hfb9a2e2868b0cd3eE@Base 3.2.0
 _ZN64_$LT$core..alloc..layout..Layout$u20$as$u20$core..fmt..Debug$GT$3fmt17hb966a23f4b8a609eE@Base 3.2.0
 _ZN64_$LT$core..cell..BorrowMutError$u20$as$u20$std..error..Error$GT$11description17hd0962c602a856819E@Base 3.2.0
 _ZN64_$LT$core..char..CaseMappingIter$u20$as$u20$core..fmt..Debug$GT$3fmt17hc93ab7bbdc19f958E@Base 3.2.0
 _ZN64_$LT$core..char..EscapeDefault$u20$as$u20$core..fmt..Display$GT$3fmt17hb0f80446159e8aa6E@Base 3.2.0
 _ZN64_$LT$core..char..EscapeUnicode$u20$as$u20$core..fmt..Display$GT$3fmt17h6d762ba80d7105d0E@Base 3.2.0
 _ZN64_$LT$core..convert..Infallible$u20$as$u20$core..clone..Clone$GT$5clone17ha6e90560f47a6fc9E@Base 3.2.0
 _ZN64_$LT$core..convert..Infallible$u20$as$u20$core..fmt..Display$GT$3fmt17he239abd89d079710E@Base 3.2.0
 _ZN64_$LT$core..marker..PhantomPinned$u20$as$u20$core..fmt..Debug$GT$3fmt17h2ce04e25fe6ec3bbE@Base 3.2.0
 _ZN64_$LT$core..num..bignum..Big32x40$u20$as$u20$core..fmt..Debug$GT$3fmt17hb0d0efc5b80328c0E@Base 3.2.0
 _ZN64_$LT$core..ops..range..RangeFull$u20$as$u20$core..fmt..Debug$GT$3fmt17h42ba45ae3cdab968E@Base 3.2.0
 _ZN64_$LT$core..panicking..AssertKind$u20$as$u20$core..fmt..Debug$GT$3fmt17h89ee1f477f33a275E@Base 3.2.0
 _ZN64_$LT$core..str..error..Utf8Error$u20$as$u20$core..fmt..Debug$GT$3fmt17hcb73ebd0cbd27e3dE@Base 3.2.0
 _ZN64_$LT$core..str..lossy..Utf8Lossy$u20$as$u20$core..fmt..Debug$GT$3fmt17h2c46d135dc286b34E@Base 3.2.0
 _ZN64_$LT$gimli..common..LineEncoding$u20$as$u20$core..fmt..Debug$GT$3fmt17h4ab0846683f49d10E@Base 3.2.0
 _ZN64_$LT$gimli..constants..DwMacro$u20$as$u20$core..fmt..Display$GT$3fmt17h612408caba6cf54bE@Base 3.2.0
 _ZN64_$LT$gimli..endianity..BigEndian$u20$as$u20$core..fmt..Debug$GT$3fmt17hb21ca50672ecbd5cE@Base 3.2.0
 _ZN64_$LT$object..common..AddressSize$u20$as$u20$core..fmt..Debug$GT$3fmt17hbce7a5310934630eE@Base 3.2.0
 _ZN64_$LT$object..common..SectionKind$u20$as$u20$core..fmt..Debug$GT$3fmt17h4a0977538775f2c1E@Base 3.2.0
 _ZN64_$LT$object..common..SymbolScope$u20$as$u20$core..fmt..Debug$GT$3fmt17hb0b6749082dc8374E@Base 3.2.0
 _ZN64_$LT$object..pe..ImageFileHeader$u20$as$u20$core..fmt..Debug$GT$3fmt17ha166a3a6757b2efbE@Base 3.2.0
 _ZN64_$LT$object..pe..ImageLinenumber$u20$as$u20$core..fmt..Debug$GT$3fmt17h16397308d018a0c9E@Base 3.2.0
 _ZN64_$LT$object..pe..ImageRelocation$u20$as$u20$core..fmt..Debug$GT$3fmt17hd7e88b51c49fb7f6E@Base 3.2.0
 _ZN64_$LT$object..pe..ImageRomHeaders$u20$as$u20$core..fmt..Debug$GT$3fmt17hd0a33ab2df8510c7E@Base 3.2.0
 _ZN64_$LT$object..read..SymbolMapName$u20$as$u20$core..fmt..Debug$GT$3fmt17h8aaabbaa80d1b670E@Base 3.2.0
 _ZN64_$LT$object..read..SymbolSection$u20$as$u20$core..fmt..Debug$GT$3fmt17h0ba3334935d215f3E@Base 3.2.0
 _ZN64_$LT$rustc_demangle..v0..Ident$u20$as$u20$core..fmt..Display$GT$3fmt17hbf2446ad22faebd8E@Base 3.2.0
 _ZN64_$LT$std..backtrace..Backtrace$u20$as$u20$core..fmt..Display$GT$3fmt17h100f261306884158E@Base 3.2.0
 _ZN64_$LT$std..backtrace..BytesOrWide$u20$as$u20$core..fmt..Debug$GT$3fmt17h6ad8681e3d957a62E@Base 3.2.0
 _ZN64_$LT$std..ffi..c_str..CStr$u20$as$u20$alloc..borrow..ToOwned$GT$10clone_into17h9ac8ab3dd0106e48E@Base 3.2.0
 _ZN64_$LT$std..ffi..c_str..CStr$u20$as$u20$alloc..borrow..ToOwned$GT$8to_owned17hb30798cb2c996d56E@Base 3.2.0
 _ZN64_$LT$std..ffi..c_str..NulError$u20$as$u20$core..fmt..Display$GT$3fmt17hc8de9054e8f5eeefE@Base 3.2.0
 _ZN64_$LT$std..io..error..ErrorKind$u20$as$u20$core..fmt..Display$GT$3fmt17h8cdbf6aa06754979E@Base 3.2.0
 _ZN64_$LT$std..net..tcp..IntoIncoming$u20$as$u20$core..fmt..Debug$GT$3fmt17hdffc3e1aea3754f0E@Base 3.2.0
 _ZN64_$LT$std..os..fd..owned..OwnedFd$u20$as$u20$core..fmt..Debug$GT$3fmt17h460e4c5d2cf686f1E@Base 3.2.0
 _ZN64_$LT$std..os..unix..ucred..UCred$u20$as$u20$core..fmt..Debug$GT$3fmt17hb65f721fea4d362aE@Base 3.2.0
 _ZN64_$LT$std..path..StripPrefixError$u20$as$u20$core..fmt..Debug$GT$3fmt17h70c437c4ad527cb9E@Base 3.2.0
 _ZN64_$LT$std..sync..barrier..Barrier$u20$as$u20$core..fmt..Debug$GT$3fmt17hc05320ee138e485dE@Base 3.2.0
 _ZN64_$LT$std..sync..condvar..Condvar$u20$as$u20$core..fmt..Debug$GT$3fmt17hf0037ddcd8aef58cE@Base 3.2.0
 _ZN64_$LT$std..sync..mpsc..RecvError$u20$as$u20$std..error..Error$GT$11description17h2c631ef69284e77eE@Base 3.2.0
 _ZN64_$LT$std..sys..unix..fs..ReadDir$u20$as$u20$core..fmt..Debug$GT$3fmt17h2a0fda77c96352f3E@Base 3.2.0
 _ZN64_$LT$std..sys..unix..os_str..Buf$u20$as$u20$core..fmt..Debug$GT$3fmt17h2b6223fd0439f897E@Base 3.2.0
 _ZN64_$LT$std..sys..unix..stdio..Stderr$u20$as$u20$std..io..Write$GT$14write_vectored17h4d1018e2956f8bc6E@Base 3.2.0
 _ZN64_$LT$std..sys..unix..stdio..Stderr$u20$as$u20$std..io..Write$GT$5flush17hd903a9e97bccb1c0E@Base 3.2.0
 _ZN64_$LT$std..sys..unix..stdio..Stderr$u20$as$u20$std..io..Write$GT$5write17haf08199ebd21e933E@Base 3.2.0
 _ZN64_$LT$std..sys..unix..stdio..Stdout$u20$as$u20$std..io..Write$GT$14write_vectored17h5956ddcfa2dbd56bE@Base 3.2.0
 _ZN64_$LT$std..sys..unix..stdio..Stdout$u20$as$u20$std..io..Write$GT$5flush17he1cdc8d06d8a075aE@Base 3.2.0
 _ZN64_$LT$std..sys..unix..stdio..Stdout$u20$as$u20$std..io..Write$GT$5write17h4fb62c394c1d6cd3E@Base 3.2.0
 _ZN64_$LT$std..sys_common..wtf8..Wtf8$u20$as$u20$core..fmt..Debug$GT$3fmt17he79cc55d802b5644E@Base 3.2.0
 _ZN64_$LT$std..time..SystemTimeError$u20$as$u20$std..error..Error$GT$11description17he1756886cc98cab9E@Base 3.2.0
 _ZN65_$LT$alloc..string..FromUtf8Error$u20$as$u20$core..fmt..Debug$GT$3fmt17hbff95077304aebcfE@Base 3.2.0
 _ZN65_$LT$core..ascii..EscapeDefault$u20$as$u20$core..fmt..Display$GT$3fmt17hb39f5379b8c34e0eE@Base 3.2.0
 _ZN65_$LT$core..cell..BorrowMutError$u20$as$u20$core..fmt..Display$GT$3fmt17hb599bf067c40cb5eE@Base 3.2.0
 _ZN65_$LT$core..char..TryFromCharError$u20$as$u20$core..fmt..Debug$GT$3fmt17heb7cee37c3927cebE@Base 3.2.0
 _ZN65_$LT$core..hash..sip..Sip13Rounds$u20$as$u20$core..fmt..Debug$GT$3fmt17ha1831e9076df9babE@Base 3.2.0
 _ZN65_$LT$core..hash..sip..Sip24Rounds$u20$as$u20$core..fmt..Debug$GT$3fmt17hd767621030eebd11E@Base 3.2.0
 _ZN65_$LT$core..hash..sip..SipHasher13$u20$as$u20$core..fmt..Debug$GT$3fmt17haba6f8608cb226baE@Base 3.2.0
 _ZN65_$LT$core..hash..sip..SipHasher24$u20$as$u20$core..fmt..Debug$GT$3fmt17hde534e05f992fcabE@Base 3.2.0
 _ZN65_$LT$core..str..error..Utf8Error$u20$as$u20$std..error..Error$GT$11description17hd2de1179cce4d8e2E@Base 3.2.0
 _ZN65_$LT$core..str..iter..CharIndices$u20$as$u20$core..fmt..Debug$GT$3fmt17h3e3629ef61b64637E@Base 3.2.0
 _ZN65_$LT$core..str..iter..EncodeUtf16$u20$as$u20$core..fmt..Debug$GT$3fmt17h6e3522a617d39ac3E@Base 3.2.0
 _ZN65_$LT$core..str..iter..EscapeDebug$u20$as$u20$core..fmt..Debug$GT$3fmt17h94653dd97d68d02fE@Base 3.2.0
 _ZN65_$LT$core..sync..atomic..AtomicI8$u20$as$u20$core..fmt..Debug$GT$3fmt17h50185e5d2cbb2caeE@Base 3.2.0
 _ZN65_$LT$core..sync..atomic..AtomicU8$u20$as$u20$core..fmt..Debug$GT$3fmt17hbd1fe761747fd43cE@Base 3.2.0
 _ZN65_$LT$core..sync..atomic..Ordering$u20$as$u20$core..fmt..Debug$GT$3fmt17h5f8b702cd34a956fE@Base 3.2.0
 _ZN65_$LT$gimli..common..DwarfFileType$u20$as$u20$core..fmt..Debug$GT$3fmt17h83ab5228113a9f7bE@Base 3.2.0
 _ZN65_$LT$gimli..constants..DwAccess$u20$as$u20$core..fmt..Display$GT$3fmt17h3725db5e59dab015E@Base 3.2.0
 _ZN65_$LT$gimli..constants..DwChildren$u20$as$u20$core..fmt..Debug$GT$3fmt17hcd754d003b8713a6E@Base 3.2.0
 _ZN65_$LT$gimli..read..rnglists..Range$u20$as$u20$core..fmt..Debug$GT$3fmt17h1d7005b6e9e841edE@Base 3.2.0
 _ZN65_$LT$object..common..Architecture$u20$as$u20$core..fmt..Debug$GT$3fmt17hfb231a1cf9e70b6cE@Base 3.2.0
 _ZN65_$LT$object..common..BinaryFormat$u20$as$u20$core..fmt..Debug$GT$3fmt17h748ee37ab69c39a8E@Base 3.2.0
 _ZN65_$LT$object..common..SectionFlags$u20$as$u20$core..fmt..Debug$GT$3fmt17h0dd36af9673637e6E@Base 3.2.0
 _ZN65_$LT$object..endian..LittleEndian$u20$as$u20$core..fmt..Debug$GT$3fmt17hcb520601a68b97a0E@Base 3.2.0
 _ZN65_$LT$object..pe..AnonObjectHeader$u20$as$u20$core..fmt..Debug$GT$3fmt17hd5eec1ace306968bE@Base 3.2.0
 _ZN65_$LT$object..pe..ImageCor20Header$u20$as$u20$core..fmt..Debug$GT$3fmt17h0bcacdbf51852fc9E@Base 3.2.0
 _ZN65_$LT$object..pe..ImageNtHeaders32$u20$as$u20$core..fmt..Debug$GT$3fmt17h940fc2f0366e4fa6E@Base 3.2.0
 _ZN65_$LT$object..pe..ImageNtHeaders64$u20$as$u20$core..fmt..Debug$GT$3fmt17hbc6070585487e839E@Base 3.2.0
 _ZN65_$LT$object..pe..ImageSymbolBytes$u20$as$u20$core..fmt..Debug$GT$3fmt17hd2a9518bd656497aE@Base 3.2.0
 _ZN65_$LT$object..read..CompressedData$u20$as$u20$core..fmt..Debug$GT$3fmt17h9e903c4f2306d057E@Base 3.2.0
 _ZN65_$LT$object..read..ObjectMapEntry$u20$as$u20$core..fmt..Debug$GT$3fmt17h36996d5fac1cd819E@Base 3.2.0
 _ZN65_$LT$object..read..util..DebugLen$u20$as$u20$core..fmt..Debug$GT$3fmt17h7dac37a4ac92ef74E@Base 3.2.0
 _ZN65_$LT$std..backtrace_rs..Bomb$u20$as$u20$core..ops..drop..Drop$GT$4drop17h72ee72b3c897b364E@Base 3.2.0
 _ZN65_$LT$std..net..addr..SocketAddr$u20$as$u20$core..fmt..Display$GT$3fmt17h1088cc078ede41ceE@Base 3.2.0
 _ZN65_$LT$std..net..addr..SocketAddrV4$u20$as$u20$core..fmt..Debug$GT$3fmt17h934abacd80f67121E@Base 3.2.0
 _ZN65_$LT$std..net..addr..SocketAddrV6$u20$as$u20$core..fmt..Debug$GT$3fmt17h05bbeb55e41f30f9E@Base 3.2.0
 _ZN65_$LT$std..path..StripPrefixError$u20$as$u20$std..error..Error$GT$11description17h4de9af0c0abb2e2cE@Base 3.2.0
 _ZN65_$LT$std..sync..mpsc..RecvError$u20$as$u20$core..fmt..Display$GT$3fmt17h2c7e9f139be59ebdE@Base 3.2.0
 _ZN65_$LT$std..sys..unix..fd..FileDesc$u20$as$u20$core..fmt..Debug$GT$3fmt17h9be1b0be47d79a2fE@Base 3.2.0
 _ZN65_$LT$std..sys..unix..fs..Dir$u20$as$u20$core..ops..drop..Drop$GT$4drop17h8a83602794c63e9fE@Base 3.2.0
 _ZN65_$LT$std..sys..unix..fs..FileType$u20$as$u20$core..fmt..Debug$GT$3fmt17h1102c7e5c67f8c5fE@Base 3.2.0
 _ZN65_$LT$std..sys..unix..time..Timespec$u20$as$u20$core..cmp..Ord$GT$3cmp17h556f8dca52fd56c6E@Base 3.2.0
 _ZN65_$LT$std..time..SystemTimeError$u20$as$u20$core..fmt..Display$GT$3fmt17hd70ca11fec84437fE@Base 3.2.0
 _ZN66_$LT$$RF$std..sys..unix..fd..FileDesc$u20$as$u20$std..io..Read$GT$4read17h5ebba88d5ddf1ef2E@Base 3.2.0
 _ZN66_$LT$alloc..string..FromUtf16Error$u20$as$u20$core..fmt..Debug$GT$3fmt17hbf0edb3f94cf57dbE@Base 3.2.0
 _ZN66_$LT$alloc..string..FromUtf8Error$u20$as$u20$std..error..Error$GT$11description17h8faa44036bc177b7E@Base 3.2.0
 _ZN66_$LT$core..char..CaseMappingIter$u20$as$u20$core..fmt..Display$GT$3fmt17h96b0c94f34dedcf0E@Base 3.2.0
 _ZN66_$LT$core..convert..Infallible$u20$as$u20$core..cmp..PartialEq$GT$2eq17h62c10541555e3e8bE@Base 3.2.0
 _ZN66_$LT$core..num..bignum..Big32x40$u20$as$u20$core..clone..Clone$GT$5clone17h771575c9ee6a4ff2E@Base 3.2.0
 _ZN66_$LT$core..str..error..Utf8Error$u20$as$u20$core..fmt..Display$GT$3fmt17h9d4f135f4ecc6f94E@Base 3.2.0
 _ZN66_$LT$core..str..lossy..Utf8Lossy$u20$as$u20$core..fmt..Display$GT$3fmt17h0660f30b8c809c8eE@Base 3.2.0
 _ZN66_$LT$core..sync..atomic..AtomicI16$u20$as$u20$core..fmt..Debug$GT$3fmt17h621db2a163c885d6E@Base 3.2.0
 _ZN66_$LT$core..sync..atomic..AtomicI32$u20$as$u20$core..fmt..Debug$GT$3fmt17hc83cdebebf7dacc1E@Base 3.2.0
 _ZN66_$LT$core..sync..atomic..AtomicI64$u20$as$u20$core..fmt..Debug$GT$3fmt17h7f6104db3c8b29a3E@Base 3.2.0
 _ZN66_$LT$core..sync..atomic..AtomicU16$u20$as$u20$core..fmt..Debug$GT$3fmt17hcfdd3fe9427bb420E@Base 3.2.0
 _ZN66_$LT$core..sync..atomic..AtomicU32$u20$as$u20$core..fmt..Debug$GT$3fmt17h29be1d5476078183E@Base 3.2.0
 _ZN66_$LT$core..sync..atomic..AtomicU64$u20$as$u20$core..fmt..Debug$GT$3fmt17hcf055c31dbf078a3E@Base 3.2.0
 _ZN66_$LT$gimli..constants..DwDefaulted$u20$as$u20$core..fmt..Debug$GT$3fmt17h16b2f6912815c35eE@Base 3.2.0
 _ZN66_$LT$gimli..read..line..ColumnType$u20$as$u20$core..fmt..Debug$GT$3fmt17hebcd3c20a18971cbE@Base 3.2.0
 _ZN66_$LT$object..pe..ImageAuxSymbolCrc$u20$as$u20$core..fmt..Debug$GT$3fmt17h6435f58187e38450E@Base 3.2.0
 _ZN66_$LT$object..pe..ImageHotPatchBase$u20$as$u20$core..fmt..Debug$GT$3fmt17h9bf0ae95ae4bb9b6E@Base 3.2.0
 _ZN66_$LT$object..pe..ImageHotPatchInfo$u20$as$u20$core..fmt..Debug$GT$3fmt17h3e1c258bae628448E@Base 3.2.0
 _ZN66_$LT$object..pe..ImageImportByName$u20$as$u20$core..fmt..Debug$GT$3fmt17hc6c16fbb69d07177E@Base 3.2.0
 _ZN66_$LT$object..pe..NonPagedDebugInfo$u20$as$u20$core..fmt..Debug$GT$3fmt17hc9c9d61998f21936E@Base 3.2.0
 _ZN66_$LT$object..read..util..DebugByte$u20$as$u20$core..fmt..Debug$GT$3fmt17h1c64f8fa2577643eE@Base 3.2.0
 _ZN66_$LT$std..error..private..Internal$u20$as$u20$core..fmt..Debug$GT$3fmt17h532efaf6bf7f0ebcE@Base 3.2.0
 _ZN66_$LT$std..io..error..SimpleMessage$u20$as$u20$core..fmt..Debug$GT$3fmt17hff8c1d29f366c382E@Base 3.2.0
 _ZN66_$LT$std..path..StripPrefixError$u20$as$u20$core..fmt..Display$GT$3fmt17h9df3720c8bd4ed63E@Base 3.2.0
 _ZN66_$LT$std..process..ExitStatusError$u20$as$u20$core..fmt..Debug$GT$3fmt17h7fa9c0e6a878d32fE@Base 3.2.0
 _ZN66_$LT$std..sync..mpsc..TryRecvError$u20$as$u20$core..fmt..Debug$GT$3fmt17hc496b0af669b8c8dE@Base 3.2.0
 _ZN66_$LT$std..sys..unix..os_str..Buf$u20$as$u20$core..fmt..Display$GT$3fmt17h64e6c8c4ca2a44dcE@Base 3.2.0
 _ZN66_$LT$std..sys..unix..os_str..Slice$u20$as$u20$core..fmt..Debug$GT$3fmt17hc04464ca181c8e5cE@Base 3.2.0
 _ZN66_$LT$std..sys_common..wtf8..Wtf8$u20$as$u20$core..fmt..Display$GT$3fmt17h835d6a8318b7a55bE@Base 3.2.0
 _ZN67_$LT$alloc..string..FromUtf16Error$u20$as$u20$std..error..Error$GT$11description17hc856428f2c02de9cE@Base 3.2.0
 _ZN67_$LT$alloc..string..FromUtf8Error$u20$as$u20$core..fmt..Display$GT$3fmt17h1f59635ae2abc65fE@Base 3.2.0
 _ZN67_$LT$core..array..TryFromSliceError$u20$as$u20$core..fmt..Debug$GT$3fmt17he1fce22829424482E@Base 3.2.0
 _ZN67_$LT$core..char..EscapeDefaultState$u20$as$u20$core..fmt..Debug$GT$3fmt17h3b7c6f996db24d9dE@Base 3.2.0
 _ZN67_$LT$core..char..EscapeUnicodeState$u20$as$u20$core..fmt..Debug$GT$3fmt17hc886cc920189372fE@Base 3.2.0
 _ZN67_$LT$core..char..TryFromCharError$u20$as$u20$core..fmt..Display$GT$3fmt17h6486a23405a44628E@Base 3.2.0
 _ZN67_$LT$core..convert..Infallible$u20$as$u20$core..cmp..PartialOrd$GT$11partial_cmp17h1c4c39308b7e300fE@Base 3.2.0
 _ZN67_$LT$core..num..bignum..tests..Big8x3$u20$as$u20$core..cmp..Ord$GT$3cmp17h62ddba89204620e9E@Base 3.2.0
 _ZN67_$LT$core..num..error..IntErrorKind$u20$as$u20$core..fmt..Debug$GT$3fmt17hbbf37fc5fae8519dE@Base 3.2.0
 _ZN67_$LT$core..str..iter..EscapeDebug$u20$as$u20$core..fmt..Display$GT$3fmt17h4ec4fab90baee79cE@Base 3.2.0
 _ZN67_$LT$core..str..iter..EscapeDefault$u20$as$u20$core..fmt..Debug$GT$3fmt17h29c9997710c8c98fE@Base 3.2.0
 _ZN67_$LT$core..str..iter..EscapeUnicode$u20$as$u20$core..fmt..Debug$GT$3fmt17hc0fa32fde0793cbcE@Base 3.2.0
 _ZN67_$LT$core..str..pattern..SearchStep$u20$as$u20$core..fmt..Debug$GT$3fmt17h4cf4a342b7dcc71eE@Base 3.2.0
 _ZN67_$LT$core..sync..atomic..AtomicBool$u20$as$u20$core..fmt..Debug$GT$3fmt17h5d8cf11edfb6b3b5E@Base 3.2.0
 _ZN67_$LT$core..sync..atomic..AtomicI128$u20$as$u20$core..fmt..Debug$GT$3fmt17hea89c2b664a38c53E@Base 3.2.0
 _ZN67_$LT$core..sync..atomic..AtomicU128$u20$as$u20$core..fmt..Debug$GT$3fmt17h9ec1c740b8961ae1E@Base 3.2.0
 _ZN67_$LT$core..time..FromFloatSecsError$u20$as$u20$core..fmt..Debug$GT$3fmt17h702c13171baea9c7E@Base 3.2.0
 _ZN67_$LT$f32$u20$as$u20$core..num..flt2dec..decoder..DecodableFloat$GT$18min_pos_norm_value17hd4003866fe0f8547E@Base 3.2.0
 _ZN67_$LT$f64$u20$as$u20$core..num..flt2dec..decoder..DecodableFloat$GT$18min_pos_norm_value17h259d487d62affaf2E@Base 3.2.0
 _ZN67_$LT$gimli..constants..DwChildren$u20$as$u20$core..fmt..Display$GT$3fmt17h4b28a3e09d253304E@Base 3.2.0
 _ZN67_$LT$gimli..constants..DwVirtuality$u20$as$u20$core..fmt..Debug$GT$3fmt17h490ddbef581ddab1E@Base 3.2.0
 _ZN67_$LT$gimli..endianity..LittleEndian$u20$as$u20$core..fmt..Debug$GT$3fmt17he01b5473e468a6aaE@Base 3.2.0
 _ZN67_$LT$gimli..read..cfi..Augmentation$u20$as$u20$core..fmt..Debug$GT$3fmt17h6201ca4960fe10c2E@Base 3.2.0
 _ZN67_$LT$object..common..RelocationKind$u20$as$u20$core..fmt..Debug$GT$3fmt17h154e60f14827b3b8E@Base 3.2.0
 _ZN67_$LT$object..pe..AnonObjectHeaderV2$u20$as$u20$core..fmt..Debug$GT$3fmt17h5232c87da2a1660bE@Base 3.2.0
 _ZN67_$LT$object..pe..ImageAuxSymbolWeak$u20$as$u20$core..fmt..Debug$GT$3fmt17haa3ad8ec59da242bE@Base 3.2.0
 _ZN67_$LT$object..pe..ImageDataDirectory$u20$as$u20$core..fmt..Debug$GT$3fmt17ha08abe1438d0de39E@Base 3.2.0
 _ZN67_$LT$object..pe..ImageEnclaveImport$u20$as$u20$core..fmt..Debug$GT$3fmt17h819e1f4be268b7edE@Base 3.2.0
 _ZN67_$LT$object..pe..ImageFunctionEntry$u20$as$u20$core..fmt..Debug$GT$3fmt17ha70dff50443a40faE@Base 3.2.0
 _ZN67_$LT$object..pe..ImageSectionHeader$u20$as$u20$core..fmt..Debug$GT$3fmt17h43583e5f102293c2E@Base 3.2.0
 _ZN67_$LT$object..pe..ImageSymbolExBytes$u20$as$u20$core..fmt..Debug$GT$3fmt17hfff7a2d4d0189d82E@Base 3.2.0
 _ZN67_$LT$object..pe..ImportObjectHeader$u20$as$u20$core..fmt..Debug$GT$3fmt17h3c1e4fe5bff0c1a5E@Base 3.2.0
 _ZN67_$LT$object..read..RelocationTarget$u20$as$u20$core..fmt..Debug$GT$3fmt17h66540ed676fe708eE@Base 3.2.0
 _ZN67_$LT$object..read..util..ByteString$u20$as$u20$core..fmt..Debug$GT$3fmt17h56cfefc9f3e63654E@Base 3.2.0
 _ZN67_$LT$rustc_demangle..v0..Demangle$u20$as$u20$core..fmt..Display$GT$3fmt17hba036e950560e27aE@Base 3.2.0
 _ZN67_$LT$rustc_demangle..v0..ParseError$u20$as$u20$core..fmt..Debug$GT$3fmt17h5b1fb31b4b59b8a5E@Base 3.2.0
 _ZN67_$LT$std..backtrace..BacktraceFrame$u20$as$u20$core..fmt..Debug$GT$3fmt17h7fbf4cf7bea6d4c5E@Base 3.2.0
 _ZN67_$LT$std..ffi..c_str..CString$u20$as$u20$core..default..Default$GT$7default17hec80df0cc0f6d4a6E@Base 3.2.0
 _ZN67_$LT$std..net..addr..SocketAddrV4$u20$as$u20$core..clone..Clone$GT$5clone17h1499a1334e12bfc7E@Base 3.2.0
 _ZN67_$LT$std..net..addr..SocketAddrV4$u20$as$u20$core..fmt..Display$GT$3fmt17h23642f12972e8f49E@Base 3.2.0
 _ZN67_$LT$std..net..addr..SocketAddrV6$u20$as$u20$core..clone..Clone$GT$5clone17h0dd58c6deedf29baE@Base 3.2.0
 _ZN67_$LT$std..net..addr..SocketAddrV6$u20$as$u20$core..fmt..Display$GT$3fmt17h6c9334be0a51168aE@Base 3.2.0
 _ZN67_$LT$std..os..fd..owned..BorrowedFd$u20$as$u20$core..fmt..Debug$GT$3fmt17h8b2865858f46f4a5E@Base 3.2.0
 _ZN67_$LT$std..os..linux..process..PidFd$u20$as$u20$core..fmt..Debug$GT$3fmt17h290feadb55c5dbfaE@Base 3.2.0
 _ZN67_$LT$std..sync..mpsc..TryRecvError$u20$as$u20$std..error..Error$GT$11description17hfa150d77218d8733E@Base 3.2.0
 _ZN67_$LT$std..sync..mpsc..sync..Failure$u20$as$u20$core..fmt..Debug$GT$3fmt17h635ce1b417ba16bdE@Base 3.2.0
 _ZN67_$LT$std..sys..unix..fs..DirBuilder$u20$as$u20$core..fmt..Debug$GT$3fmt17h965c9fe88fe39192E@Base 3.2.0
 _ZN68_$LT$$RF$$u5b$u8$u5d$$u20$as$u20$object..read..read_ref..ReadRef$GT$13read_bytes_at17h127663944b031ac3E@Base 3.2.0
 _ZN68_$LT$$RF$$u5b$u8$u5d$$u20$as$u20$object..read..read_ref..ReadRef$GT$19read_bytes_at_until17h4b142b955a852e8cE@Base 3.2.0
 _ZN68_$LT$$RF$$u5b$u8$u5d$$u20$as$u20$object..read..read_ref..ReadRef$GT$3len17hcfc1ccbc352ffe59E@Base 3.2.0
 _ZN68_$LT$$RF$std..ffi..c_str..CStr$u20$as$u20$core..default..Default$GT$7default17h5c7d49867ab6ca17E@Base 3.2.0
 _ZN68_$LT$alloc..string..FromUtf16Error$u20$as$u20$core..fmt..Display$GT$3fmt17h10e7a65de5ac3a28E@Base 3.2.0
 _ZN68_$LT$core..array..TryFromSliceError$u20$as$u20$std..error..Error$GT$11description17h81fc0858cbebc7e2E@Base 3.2.0
 _ZN68_$LT$core..core_simd..swizzle..Which$u20$as$u20$core..fmt..Debug$GT$3fmt17h8639cebf873bd889E@Base 3.2.0
 _ZN68_$LT$core..fmt..builders..PadAdapter$u20$as$u20$core..fmt..Write$GT$9write_str17he3fafb7739c56655E@Base 3.2.0
 _ZN68_$LT$core..num..bignum..Big32x40$u20$as$u20$core..cmp..PartialEq$GT$2eq17h7ea7787f86d20d80E@Base 3.2.0
 _ZN68_$LT$core..num..error..ParseIntError$u20$as$u20$core..fmt..Debug$GT$3fmt17h7b86553fe0c7dea3E@Base 3.2.0
 _ZN68_$LT$core..panic..location..Location$u20$as$u20$core..fmt..Debug$GT$3fmt17h2bf0863bcabf97fcE@Base 3.2.0
 _ZN68_$LT$core..slice..ascii..EscapeAscii$u20$as$u20$core..fmt..Debug$GT$3fmt17h8e6f58e43cf32932E@Base 3.2.0
 _ZN68_$LT$core..str..pattern..EmptyNeedle$u20$as$u20$core..fmt..Debug$GT$3fmt17hb58194be44e103f8E@Base 3.2.0
 _ZN68_$LT$core..str..pattern..StrSearcher$u20$as$u20$core..fmt..Debug$GT$3fmt17h3083cb6fe12e0fc9E@Base 3.2.0
 _ZN68_$LT$core..sync..atomic..AtomicIsize$u20$as$u20$core..fmt..Debug$GT$3fmt17hac522e7d7ea1a413E@Base 3.2.0
 _ZN68_$LT$core..sync..atomic..AtomicUsize$u20$as$u20$core..fmt..Debug$GT$3fmt17he0e67501a85e5194E@Base 3.2.0
 _ZN68_$LT$core..time..Duration$u20$as$u20$core..ops..arith..AddAssign$GT$10add_assign17h9ce463b6f2dbbcd1E@Base 3.2.0
 _ZN68_$LT$core..time..Duration$u20$as$u20$core..ops..arith..SubAssign$GT$10sub_assign17h3fa3478b09063a6bE@Base 3.2.0
 _ZN68_$LT$gimli..constants..DwDefaulted$u20$as$u20$core..fmt..Display$GT$3fmt17h6d5048bf698b7b89E@Base 3.2.0
 _ZN68_$LT$gimli..endianity..RunTimeEndian$u20$as$u20$core..fmt..Debug$GT$3fmt17hbcfa6ac6c5d50a09E@Base 3.2.0
 _ZN68_$LT$gimli..read..abbrev..Attributes$u20$as$u20$core..fmt..Debug$GT$3fmt17ha589dffb7b3bc5f5E@Base 3.2.0
 _ZN68_$LT$gimli..read..cfi..BaseAddresses$u20$as$u20$core..fmt..Debug$GT$3fmt17h357d07e42f157092E@Base 3.2.0
 _ZN68_$LT$gimli..read..lists..ListsHeader$u20$as$u20$core..fmt..Debug$GT$3fmt17hf193e8dd45157379E@Base 3.2.0
 _ZN68_$LT$gimli..read..rnglists..RawRange$u20$as$u20$core..fmt..Debug$GT$3fmt17h0c001da2784b625bE@Base 3.2.0
 _ZN68_$LT$object..pe..ImageBaseRelocation$u20$as$u20$core..fmt..Debug$GT$3fmt17h8ad038f6d3d4fdafE@Base 3.2.0
 _ZN68_$LT$object..pe..ImageDebugDirectory$u20$as$u20$core..fmt..Debug$GT$3fmt17ha86e2e0a661f985eE@Base 3.2.0
 _ZN68_$LT$object..pe..ImageHotPatchHashes$u20$as$u20$core..fmt..Debug$GT$3fmt17h135214cb87939e95E@Base 3.2.0
 _ZN68_$LT$object..pe..ImageTlsDirectory32$u20$as$u20$core..fmt..Debug$GT$3fmt17h563fcef6d90dad28E@Base 3.2.0
 _ZN68_$LT$object..pe..ImageTlsDirectory64$u20$as$u20$core..fmt..Debug$GT$3fmt17hb7aa99c19aa563efE@Base 3.2.0
 _ZN68_$LT$object..read..CompressionFormat$u20$as$u20$core..fmt..Debug$GT$3fmt17hcf341c7f38eabe4fE@Base 3.2.0
 _ZN68_$LT$rustc_demangle..DemangleStyle$u20$as$u20$core..fmt..Display$GT$3fmt17hfb9485c21512af55E@Base 3.2.0
 _ZN68_$LT$std..backtrace..BacktraceStatus$u20$as$u20$core..fmt..Debug$GT$3fmt17h660d2a0b5410bb21E@Base 3.2.0
 _ZN68_$LT$std..backtrace..BacktraceSymbol$u20$as$u20$core..fmt..Debug$GT$3fmt17h28988c94f6b6fbc0E@Base 3.2.0
 _ZN68_$LT$std..fs..DirEntry$u20$as$u20$std..os..unix..fs..DirEntryExt$GT$3ino17h9db2c74dfc38f9b4E@Base 3.2.0
 _ZN68_$LT$std..fs..FileType$u20$as$u20$std..os..unix..fs..FileTypeExt$GT$14is_char_device17h4844068692be668fE@Base 3.2.0
 _ZN68_$LT$std..fs..FileType$u20$as$u20$std..os..unix..fs..FileTypeExt$GT$15is_block_device17h477b71c552870ab7E@Base 3.2.0
 _ZN68_$LT$std..fs..FileType$u20$as$u20$std..os..unix..fs..FileTypeExt$GT$7is_fifo17h84518b5b4d637566E@Base 3.2.0
 _ZN68_$LT$std..fs..FileType$u20$as$u20$std..os..unix..fs..FileTypeExt$GT$9is_socket17h4818872e43bed7f4E@Base 3.2.0
 _ZN68_$LT$std..fs..Metadata$u20$as$u20$std..os..unix..fs..MetadataExt$GT$10atime_nsec17h1385ca52304e9c5aE@Base 3.2.0
 _ZN68_$LT$std..fs..Metadata$u20$as$u20$std..os..unix..fs..MetadataExt$GT$10ctime_nsec17h77df09e73252d07dE@Base 3.2.0
 _ZN68_$LT$std..fs..Metadata$u20$as$u20$std..os..unix..fs..MetadataExt$GT$10mtime_nsec17h96a582dd1b982748E@Base 3.2.0
 _ZN68_$LT$std..fs..Metadata$u20$as$u20$std..os..unix..fs..MetadataExt$GT$3dev17hace533d3443d95a8E@Base 3.2.0
 _ZN68_$LT$std..fs..Metadata$u20$as$u20$std..os..unix..fs..MetadataExt$GT$3gid17h9b91af2f0d539271E@Base 3.2.0
 _ZN68_$LT$std..fs..Metadata$u20$as$u20$std..os..unix..fs..MetadataExt$GT$3ino17h74a306476e611d68E@Base 3.2.0
 _ZN68_$LT$std..fs..Metadata$u20$as$u20$std..os..unix..fs..MetadataExt$GT$3uid17h326a2223d809d92dE@Base 3.2.0
 _ZN68_$LT$std..fs..Metadata$u20$as$u20$std..os..unix..fs..MetadataExt$GT$4mode17h8a3c533fe480c44bE@Base 3.2.0
 _ZN68_$LT$std..fs..Metadata$u20$as$u20$std..os..unix..fs..MetadataExt$GT$4rdev17h051bb6dda2b37168E@Base 3.2.0
 _ZN68_$LT$std..fs..Metadata$u20$as$u20$std..os..unix..fs..MetadataExt$GT$4size17hc31d3f9180d4d33cE@Base 3.2.0
 _ZN68_$LT$std..fs..Metadata$u20$as$u20$std..os..unix..fs..MetadataExt$GT$5atime17h5ac3d0d4b27ba0c5E@Base 3.2.0
 _ZN68_$LT$std..fs..Metadata$u20$as$u20$std..os..unix..fs..MetadataExt$GT$5ctime17hd8ee169b7de60c67E@Base 3.2.0
 _ZN68_$LT$std..fs..Metadata$u20$as$u20$std..os..unix..fs..MetadataExt$GT$5mtime17haa913eb900c08bfbE@Base 3.2.0
 _ZN68_$LT$std..fs..Metadata$u20$as$u20$std..os..unix..fs..MetadataExt$GT$5nlink17hc169445ca04846b9E@Base 3.2.0
 _ZN68_$LT$std..fs..Metadata$u20$as$u20$std..os..unix..fs..MetadataExt$GT$6blocks17h8767da4b27f975eaE@Base 3.2.0
 _ZN68_$LT$std..fs..Metadata$u20$as$u20$std..os..unix..fs..MetadataExt$GT$7blksize17h3eade1c1f1bac571E@Base 3.2.0
 _ZN68_$LT$std..process..ExitStatusError$u20$as$u20$core..fmt..Display$GT$3fmt17h5a4d0131e118b0f7E@Base 3.2.0
 _ZN68_$LT$std..sync..mpsc..TryRecvError$u20$as$u20$core..fmt..Display$GT$3fmt17hcc5ae992f2480131E@Base 3.2.0
 _ZN68_$LT$std..sys..unix..fs..OpenOptions$u20$as$u20$core..fmt..Debug$GT$3fmt17h8c72730b7335f062E@Base 3.2.0
 _ZN68_$LT$std..sys..unix..os_str..Slice$u20$as$u20$core..fmt..Display$GT$3fmt17h8e78f6e8e759bd7cE@Base 3.2.0
 _ZN68_$LT$std..sys_common..net..TcpStream$u20$as$u20$core..fmt..Debug$GT$3fmt17h2eb254e0750bff9cE@Base 3.2.0
 _ZN68_$LT$std..sys_common..net..UdpSocket$u20$as$u20$core..fmt..Debug$GT$3fmt17ha3c123882666eff4E@Base 3.2.0
 _ZN68_$LT$std..thread..local..AccessError$u20$as$u20$core..fmt..Debug$GT$3fmt17h51ca19b4aac5dc4dE@Base 3.2.0
 _ZN69_$LT$core..alloc..layout..LayoutError$u20$as$u20$core..fmt..Debug$GT$3fmt17h889d4621dfaf5d06E@Base 3.2.0
 _ZN69_$LT$core..num..bignum..Big32x40$u20$as$u20$core..cmp..PartialOrd$GT$11partial_cmp17h19f64290e7f33209E@Base 3.2.0
 _ZN69_$LT$core..num..bignum..tests..Big8x3$u20$as$u20$core..fmt..Debug$GT$3fmt17hd7dea2da8f672e68E@Base 3.2.0
 _ZN69_$LT$core..num..error..ParseIntError$u20$as$u20$std..error..Error$GT$11description17h2372b58d702f845bE@Base 3.2.0
 _ZN69_$LT$core..str..error..ParseBoolError$u20$as$u20$core..fmt..Debug$GT$3fmt17h4d8162495b845637E@Base 3.2.0
 _ZN69_$LT$core..str..iter..EscapeDefault$u20$as$u20$core..fmt..Display$GT$3fmt17h156a7c1b0465b6ebE@Base 3.2.0
 _ZN69_$LT$core..str..iter..EscapeUnicode$u20$as$u20$core..fmt..Display$GT$3fmt17h0a3d31b48cf23c12E@Base 3.2.0
 _ZN69_$LT$core..str..iter..SplitWhitespace$u20$as$u20$core..fmt..Debug$GT$3fmt17hcfb132ebfcc7af80E@Base 3.2.0
 _ZN69_$LT$core..str..lossy..Utf8LossyChunk$u20$as$u20$core..fmt..Debug$GT$3fmt17hfeb537ea690a0619E@Base 3.2.0
 _ZN69_$LT$core..str..pattern..CharSearcher$u20$as$u20$core..fmt..Debug$GT$3fmt17hf25ebd1cae065ff6E@Base 3.2.0
 _ZN69_$LT$core..task..wake..RawWakerVTable$u20$as$u20$core..fmt..Debug$GT$3fmt17h098817eaa157ea3eE@Base 3.2.0
 _ZN69_$LT$core..time..FromFloatSecsError$u20$as$u20$core..fmt..Display$GT$3fmt17hf84143988a4a1b87E@Base 3.2.0
 _ZN69_$LT$gimli..constants..DwVirtuality$u20$as$u20$core..fmt..Display$GT$3fmt17h0e74c9de4e9c77c1E@Base 3.2.0
 _ZN69_$LT$object..pe..ImageEnclaveConfig32$u20$as$u20$core..fmt..Debug$GT$3fmt17h64989f0d18c233c3E@Base 3.2.0
 _ZN69_$LT$object..pe..ImageEnclaveConfig64$u20$as$u20$core..fmt..Debug$GT$3fmt17h9d7059a28d79ec40E@Base 3.2.0
 _ZN69_$LT$object..pe..ImageExportDirectory$u20$as$u20$core..fmt..Debug$GT$3fmt17h992fb3424d1a34d8E@Base 3.2.0
 _ZN69_$LT$object..pe..ImageFunctionEntry64$u20$as$u20$core..fmt..Debug$GT$3fmt17hdf677b28aa8d8651E@Base 3.2.0
 _ZN69_$LT$rustc_demangle..TryDemangleError$u20$as$u20$core..fmt..Debug$GT$3fmt17hb4f31f17d41974caE@Base 3.2.0
 _ZN69_$LT$std..ffi..c_str..IntoStringError$u20$as$u20$core..fmt..Debug$GT$3fmt17h3336093e07ab33faE@Base 3.2.0
 _ZN69_$LT$std..fs..DirEntry$u20$as$u20$std..os..unix..fs..DirEntryExt2$GT$13file_name_ref17hd34900fb7892341aE@Base 3.2.0
 _ZN69_$LT$std..fs..Metadata$u20$as$u20$std..os..linux..fs..MetadataExt$GT$10st_blksize17h60fb61111ff127ceE@Base 3.2.0
 _ZN69_$LT$std..fs..Metadata$u20$as$u20$std..os..linux..fs..MetadataExt$GT$11as_raw_stat17hf42549b8a4065cedE@Base 3.2.0
 _ZN69_$LT$std..fs..Metadata$u20$as$u20$std..os..linux..fs..MetadataExt$GT$13st_atime_nsec17h54d36a3cd1c36922E@Base 3.2.0
 _ZN69_$LT$std..fs..Metadata$u20$as$u20$std..os..linux..fs..MetadataExt$GT$13st_ctime_nsec17h53c78a63d515d2e1E@Base 3.2.0
 _ZN69_$LT$std..fs..Metadata$u20$as$u20$std..os..linux..fs..MetadataExt$GT$13st_mtime_nsec17h049f8ba9f6e7caa4E@Base 3.2.0
 _ZN69_$LT$std..fs..Metadata$u20$as$u20$std..os..linux..fs..MetadataExt$GT$6st_dev17h8ba84f2a36356bd6E@Base 3.2.0
 _ZN69_$LT$std..fs..Metadata$u20$as$u20$std..os..linux..fs..MetadataExt$GT$6st_gid17hebb3fb3e97929bacE@Base 3.2.0
 _ZN69_$LT$std..fs..Metadata$u20$as$u20$std..os..linux..fs..MetadataExt$GT$6st_ino17hb29d7e3e6aa55b44E@Base 3.2.0
 _ZN69_$LT$std..fs..Metadata$u20$as$u20$std..os..linux..fs..MetadataExt$GT$6st_uid17h7ce9f37b4a7d86beE@Base 3.2.0
 _ZN69_$LT$std..fs..Metadata$u20$as$u20$std..os..linux..fs..MetadataExt$GT$7st_mode17hd0f56ed5bb739882E@Base 3.2.0
 _ZN69_$LT$std..fs..Metadata$u20$as$u20$std..os..linux..fs..MetadataExt$GT$7st_rdev17haea1927f2b169bdfE@Base 3.2.0
 _ZN69_$LT$std..fs..Metadata$u20$as$u20$std..os..linux..fs..MetadataExt$GT$7st_size17hdcfc8e0da83e8ce7E@Base 3.2.0
 _ZN69_$LT$std..fs..Metadata$u20$as$u20$std..os..linux..fs..MetadataExt$GT$8st_atime17he792497909ee3e79E@Base 3.2.0
 _ZN69_$LT$std..fs..Metadata$u20$as$u20$std..os..linux..fs..MetadataExt$GT$8st_ctime17hc8a5b89352790c02E@Base 3.2.0
 _ZN69_$LT$std..fs..Metadata$u20$as$u20$std..os..linux..fs..MetadataExt$GT$8st_mtime17hed3478fd710a7053E@Base 3.2.0
 _ZN69_$LT$std..fs..Metadata$u20$as$u20$std..os..linux..fs..MetadataExt$GT$8st_nlink17ha7e48894f40aebddE@Base 3.2.0
 _ZN69_$LT$std..fs..Metadata$u20$as$u20$std..os..linux..fs..MetadataExt$GT$9st_blocks17h2c2451e078b595d1E@Base 3.2.0
 _ZN69_$LT$std..net..addr..SocketAddrV4$u20$as$u20$core..cmp..PartialEq$GT$2eq17hf39eed394925c19bE@Base 3.2.0
 _ZN69_$LT$std..net..addr..SocketAddrV6$u20$as$u20$core..cmp..PartialEq$GT$2eq17hd283b7a140edd364E@Base 3.2.0
 _ZN69_$LT$std..net..ip..Ipv6MulticastScope$u20$as$u20$core..fmt..Debug$GT$3fmt17hdfa6e03bccf5c142E@Base 3.2.0
 _ZN69_$LT$std..net..parser..AddrParseError$u20$as$u20$core..fmt..Debug$GT$3fmt17h8e600cfcc9b952daE@Base 3.2.0
 _ZN69_$LT$std..sys..unix..fs..File$u20$as$u20$std..os..fd..owned..AsFd$GT$5as_fd17h42f11132b0cd20deE@Base 3.2.0
 _ZN69_$LT$u8$u20$as$u20$core..core_simd..masks..mask_impl..ReverseBits$GT$12reverse_bits17h60372246f51e44a9E@Base 3.2.0
 _ZN6memchr6memchr8fallback6memchr17hdc0892a9ac83847aE@Base 3.2.0
 _ZN6memchr6memchr8fallback7memchr217h352528cdfa692d49E@Base 3.2.0
 _ZN6memchr6memchr8fallback7memchr317h7fabf8b52c0fe7f5E@Base 3.2.0
 _ZN6memchr6memchr8fallback7memrchr17haae8e1d0edf0e50dE@Base 3.2.0
 _ZN6memchr6memchr8fallback8memrchr217h23a8ceabb2d61cf9E@Base 3.2.0
 _ZN6memchr6memchr8fallback8memrchr317h13cb6210889cef8cE@Base 3.2.0
 _ZN6object3elf12ELF_NOTE_GNU17hc9d04b65974a644bE@Base 3.2.0
 _ZN6object3elf13ELF_NOTE_CORE17hf39464f72200146dE@Base 3.2.0
 _ZN6object3elf14ELF_NOTE_LINUX17hefda6696ca198b79E@Base 3.2.0
 _ZN6object3elf16ELF_NOTE_SOLARIS17h71b9e03a6681d60bE@Base 3.2.0
 _ZN6object3elf4hash17he770a1ac1fdd3541E@Base 3.2.0
 _ZN6object3elf8gnu_hash17h59a10f80f8ecb90aE@Base 3.2.0
 _ZN6object4read13SymbolMapName3new17h65690ad24a21dbe5E@Base 3.2.0
 _ZN6object4read14CompressedData10decompress17h48a63c6c6f4cdc90E@Base 3.2.0
 _ZN6object4read2pe7section48_$LT$impl$u20$object..pe..ImageSectionHeader$GT$13pe_file_range17ha7d7cc0fdbf80906E@Base 3.2.0
 _ZN6object4read4coff6symbol41_$LT$impl$u20$object..pe..ImageSymbol$GT$13is_definition17h65fff1cf096c1853E@Base 3.2.0
 _ZN6object4read4coff6symbol41_$LT$impl$u20$object..pe..ImageSymbol$GT$15has_aux_section17h92cb6e4dbae05822E@Base 3.2.0
 _ZN6object4read4coff6symbol41_$LT$impl$u20$object..pe..ImageSymbol$GT$16has_aux_function17h2085ad2ea3e1ee97E@Base 3.2.0
 _ZN6object4read4coff6symbol41_$LT$impl$u20$object..pe..ImageSymbol$GT$17has_aux_file_name17h5d0e67e9caba694bE@Base 3.2.0
 _ZN6object4read4coff6symbol41_$LT$impl$u20$object..pe..ImageSymbol$GT$7address17he4ff3b4bea2e0608E@Base 3.2.0
 _ZN6object4read4coff7section12SectionTable7section17h20c5f5fda509498dE@Base 3.2.0
 _ZN6object4read4coff7section48_$LT$impl$u20$object..pe..ImageSectionHeader$GT$14coff_alignment17hb251c0a9bb016b30E@Base 3.2.0
 _ZN6object4read4coff7section48_$LT$impl$u20$object..pe..ImageSectionHeader$GT$15coff_file_range17h59fa3dc32645163aE@Base 3.2.0
 _ZN6object4read4coff7section48_$LT$impl$u20$object..pe..ImageSectionHeader$GT$4kind17h6305e8d2d0ba5339E@Base 3.2.0
 _ZN6object4read4coff7section48_$LT$impl$u20$object..pe..ImageSectionHeader$GT$8raw_name17h8b057e1de69f3968E@Base 3.2.0
 _ZN6object4read4util10data_range17h9151266d10294eb4E@Base 3.2.0
 _ZN6object4read9ObjectMap3get17h0d72dedaa01482a9E@Base 3.2.0
 _ZN6object6common11SectionKind6is_bss17hf75f1aab6350c66dE@Base 3.2.0
 _ZN6object6common12Architecture12address_size17h63178c04195294a0E@Base 3.2.0
 _ZN70_$LT$$RF$str$u20$as$u20$std..ffi..c_str..CString..new..SpecNewImpl$GT$13spec_new_impl17h5511c81f91947114E@Base 3.2.0
 _ZN70_$LT$core..fmt..num..Octal$u20$as$u20$core..fmt..num..GenericRadix$GT$5digit17hd938c31e60e56211E@Base 3.2.0
 _ZN70_$LT$core..num..error..ParseIntError$u20$as$u20$core..fmt..Display$GT$3fmt17h68a30dba4ff3d790E@Base 3.2.0
 _ZN70_$LT$core..num..error..TryFromIntError$u20$as$u20$core..fmt..Debug$GT$3fmt17hc8aef7254ca1de97E@Base 3.2.0
 _ZN70_$LT$core..panic..location..Location$u20$as$u20$core..fmt..Display$GT$3fmt17h7f9c165c2241b2bdE@Base 3.2.0
 _ZN70_$LT$core..slice..ascii..EscapeAscii$u20$as$u20$core..fmt..Display$GT$3fmt17hfbf900b78cf0de22E@Base 3.2.0
 _ZN70_$LT$core..str..error..ParseBoolError$u20$as$u20$std..error..Error$GT$11description17h6b4720cb25f6ca1eE@Base 3.2.0
 _ZN70_$LT$gimli..common..DebugTypeSignature$u20$as$u20$core..fmt..Debug$GT$3fmt17hf7e321cbd9533844E@Base 3.2.0
 _ZN70_$LT$gimli..common..LineEncoding$u20$as$u20$core..default..Default$GT$7default17hd1315c6faa5ec7ceE@Base 3.2.0
 _ZN70_$LT$gimli..read..abbrev..Abbreviation$u20$as$u20$core..fmt..Debug$GT$3fmt17h4af148b5ce972df8E@Base 3.2.0
 _ZN70_$LT$gimli..read..aranges..ArangeEntry$u20$as$u20$core..fmt..Debug$GT$3fmt17h21afc7c6c771432dE@Base 3.2.0
 _ZN70_$LT$miniz_oxide..inflate..core..State$u20$as$u20$core..fmt..Debug$GT$3fmt17hfab2d8d6754cbe19E@Base 3.2.0
 _ZN70_$LT$object..pe..ImageAuxSymbolSection$u20$as$u20$core..fmt..Debug$GT$3fmt17hebe9f4b715da7e33E@Base 3.2.0
 _ZN70_$LT$object..pe..ImageImportDescriptor$u20$as$u20$core..fmt..Debug$GT$3fmt17h7ecb172d05cb3a4fE@Base 3.2.0
 _ZN70_$LT$object..pe..ImageOptionalHeader32$u20$as$u20$core..fmt..Debug$GT$3fmt17hc41f69b22b9cabf9E@Base 3.2.0
 _ZN70_$LT$object..pe..ImageOptionalHeader64$u20$as$u20$core..fmt..Debug$GT$3fmt17h9478e1209f3b2a29E@Base 3.2.0
 _ZN70_$LT$object..read..CompressedFileRange$u20$as$u20$core..fmt..Debug$GT$3fmt17h52c74e5386e1264bE@Base 3.2.0
 _ZN70_$LT$std..ffi..c_str..IntoStringError$u20$as$u20$std..error..Error$GT$11description17ha8126688ac16a3f4E@Base 3.2.0
 _ZN70_$LT$std..ffi..c_str..IntoStringError$u20$as$u20$std..error..Error$GT$6source17hfdc1f8da4ab9aef4E@Base 3.2.0
 _ZN70_$LT$std..net..addr..SocketAddrV4$u20$as$u20$core..cmp..PartialOrd$GT$11partial_cmp17hf890ef73625854c3E@Base 3.2.0
 _ZN70_$LT$std..net..addr..SocketAddrV6$u20$as$u20$core..cmp..PartialOrd$GT$11partial_cmp17h60c75e67164541ccE@Base 3.2.0
 _ZN70_$LT$std..net..parser..AddrParseError$u20$as$u20$std..error..Error$GT$11description17h776980e7c2f01641E@Base 3.2.0
 _ZN70_$LT$std..sync..condvar..Condvar$u20$as$u20$core..default..Default$GT$7default17hc70f20ebb604693cE@Base 3.2.0
 _ZN70_$LT$std..sync..mpsc..RecvTimeoutError$u20$as$u20$core..fmt..Debug$GT$3fmt17h3a16a6388fc52fa9E@Base 3.2.0
 _ZN70_$LT$std..sync..once..WaiterQueue$u20$as$u20$core..ops..drop..Drop$GT$4drop17ha3e9eba96e003888E@Base 3.2.0
 _ZN70_$LT$std..sys..unix..fs..File$u20$as$u20$std..os..fd..raw..AsRawFd$GT$9as_raw_fd17h20e222017a6ad8bdE@Base 3.2.0
 _ZN70_$LT$std..sys_common..net..TcpListener$u20$as$u20$core..fmt..Debug$GT$3fmt17he547614d8d052cf5E@Base 3.2.0
 _ZN70_$LT$std..thread..local..AccessError$u20$as$u20$core..fmt..Display$GT$3fmt17hdaba05a2e1971323E@Base 3.2.0
 _ZN70_$LT$u16$u20$as$u20$core..core_simd..masks..mask_impl..ReverseBits$GT$12reverse_bits17h6196065c166dd29bE@Base 3.2.0
 _ZN70_$LT$u32$u20$as$u20$core..core_simd..masks..mask_impl..ReverseBits$GT$12reverse_bits17h80b1c3bfb810129aE@Base 3.2.0
 _ZN70_$LT$u64$u20$as$u20$core..core_simd..masks..mask_impl..ReverseBits$GT$12reverse_bits17hfdec2993e9dc4c6dE@Base 3.2.0
 _ZN71_$LT$$LP$$RF$str$C$u16$RP$$u20$as$u20$std..net..addr..ToSocketAddrs$GT$15to_socket_addrs17hfbf012960e3b6529E@Base 3.2.0
 _ZN71_$LT$alloc..string..String$u20$as$u20$std..net..addr..ToSocketAddrs$GT$15to_socket_addrs17heb288ee85a467793E@Base 3.2.0
 _ZN71_$LT$core..alloc..layout..LayoutError$u20$as$u20$core..fmt..Display$GT$3fmt17he63cf92cdc8195c5E@Base 3.2.0
 _ZN71_$LT$core..char..convert..CharErrorKind$u20$as$u20$core..fmt..Debug$GT$3fmt17hbe26f1fe09fac676E@Base 3.2.0
 _ZN71_$LT$core..fmt..num..Binary$u20$as$u20$core..fmt..num..GenericRadix$GT$5digit17hc98c55d7e7ddc355E@Base 3.2.0
 _ZN71_$LT$core..num..bignum..tests..Big8x3$u20$as$u20$core..clone..Clone$GT$5clone17hd42209db1a5ec010E@Base 3.2.0
 _ZN71_$LT$core..num..dec2flt..FloatErrorKind$u20$as$u20$core..fmt..Debug$GT$3fmt17hdd578885efa3eb40E@Base 3.2.0
 _ZN71_$LT$core..num..dec2flt..number..Number$u20$as$u20$core..fmt..Debug$GT$3fmt17h9e4eaeb32434d8b8E@Base 3.2.0
 _ZN71_$LT$core..num..error..TryFromIntError$u20$as$u20$std..error..Error$GT$11description17h83b3853e6fc3bdfbE@Base 3.2.0
 _ZN71_$LT$core..panic..panic_info..PanicInfo$u20$as$u20$core..fmt..Debug$GT$3fmt17h2ee39f60f4f78e51E@Base 3.2.0
 _ZN71_$LT$core..str..error..ParseBoolError$u20$as$u20$core..fmt..Display$GT$3fmt17h22cbb0a9aa068211E@Base 3.2.0
 _ZN71_$LT$core..str..pattern..TwoWaySearcher$u20$as$u20$core..fmt..Debug$GT$3fmt17h8fe17bfce5db307bE@Base 3.2.0
 _ZN71_$LT$core..time..FromFloatSecsErrorKind$u20$as$u20$core..fmt..Debug$GT$3fmt17he49dfe3b7c501372E@Base 3.2.0
 _ZN71_$LT$gimli..common..DwarfFileType$u20$as$u20$core..default..Default$GT$7default17hb20e96a468e9ca62E@Base 3.2.0
 _ZN71_$LT$gimli..read..abbrev..Abbreviations$u20$as$u20$core..fmt..Debug$GT$3fmt17h373c29524d2e287dE@Base 3.2.0
 _ZN71_$LT$gimli..read..cfi..AugmentationData$u20$as$u20$core..fmt..Debug$GT$3fmt17h88e851a16e54c82fE@Base 3.2.0
 _ZN71_$LT$gimli..read..line..FileEntryFormat$u20$as$u20$core..fmt..Debug$GT$3fmt17hde89db2e650dd026E@Base 3.2.0
 _ZN71_$LT$object..common..RelocationEncoding$u20$as$u20$core..fmt..Debug$GT$3fmt17hc8f0ee893c5934c3E@Base 3.2.0
 _ZN71_$LT$object..pe..AnonObjectHeaderBigobj$u20$as$u20$core..fmt..Debug$GT$3fmt17hcaf24cdc2efca626E@Base 3.2.0
 _ZN71_$LT$object..pe..ImageArchitectureEntry$u20$as$u20$core..fmt..Debug$GT$3fmt17h3756d78e0d67b179E@Base 3.2.0
 _ZN71_$LT$object..pe..ImageAuxSymbolFunction$u20$as$u20$core..fmt..Debug$GT$3fmt17h4dfd3c5b4247b433E@Base 3.2.0
 _ZN71_$LT$object..pe..ImageAuxSymbolTokenDef$u20$as$u20$core..fmt..Debug$GT$3fmt17h45bc8f0b2607f618E@Base 3.2.0
 _ZN71_$LT$object..pe..ImageBoundForwarderRef$u20$as$u20$core..fmt..Debug$GT$3fmt17h99ceebd6178dd91aE@Base 3.2.0
 _ZN71_$LT$object..pe..ImageCoffSymbolsHeader$u20$as$u20$core..fmt..Debug$GT$3fmt17h36e23e1dfe32e478E@Base 3.2.0
 _ZN71_$LT$object..pe..ImageResourceDataEntry$u20$as$u20$core..fmt..Debug$GT$3fmt17h8e03cedf9494e0e3E@Base 3.2.0
 _ZN71_$LT$object..pe..ImageResourceDirectory$u20$as$u20$core..fmt..Debug$GT$3fmt17h1617fbe898b5e4f3E@Base 3.2.0
 _ZN71_$LT$object..pe..ImageRomOptionalHeader$u20$as$u20$core..fmt..Debug$GT$3fmt17h1388b5542e6c5232E@Base 3.2.0
 _ZN71_$LT$rustc_demangle..SizeLimitExhausted$u20$as$u20$core..fmt..Debug$GT$3fmt17hf5b2c6fb71737d76E@Base 3.2.0
 _ZN71_$LT$rustc_demangle..legacy..Demangle$u20$as$u20$core..fmt..Display$GT$3fmt17h703333d74e7c1454E@Base 3.2.0
 _ZN71_$LT$std..ffi..c_str..IntoStringError$u20$as$u20$core..fmt..Display$GT$3fmt17hb32a6767d06340a2E@Base 3.2.0
 _ZN71_$LT$std..fs..File$u20$as$u20$std..sys..unix..kernel_copy..CopyRead$GT$10properties17h292e641750617f92E@Base 3.2.0
 _ZN71_$LT$std..net..parser..AddrParseError$u20$as$u20$core..fmt..Display$GT$3fmt17hbca19aab07bd37f2E@Base 3.2.0
 _ZN71_$LT$std..sync..mpsc..RecvTimeoutError$u20$as$u20$std..error..Error$GT$11description17h4b789b5fd15714a0E@Base 3.2.0
 _ZN71_$LT$std..sys..unix..os..JoinPathsError$u20$as$u20$core..fmt..Debug$GT$3fmt17h16e86f55330e4f32E@Base 3.2.0
 _ZN71_$LT$std..sys..unix..time..Timespec$u20$as$u20$core..cmp..PartialEq$GT$2eq17h32a581ab0ccd02bdE@Base 3.2.0
 _ZN72_$LT$alloc..string..Drain$u20$as$u20$core..convert..AsRef$LT$str$GT$$GT$6as_ref17hcd8a61fe201db8c0E@Base 3.2.0
 _ZN72_$LT$core..char..convert..ParseCharError$u20$as$u20$core..fmt..Debug$GT$3fmt17h765ecc1d7e7078c0E@Base 3.2.0
 _ZN72_$LT$core..num..dec2flt..ParseFloatError$u20$as$u20$core..fmt..Debug$GT$3fmt17h49df91e962a82e80E@Base 3.2.0
 _ZN72_$LT$core..num..error..TryFromIntError$u20$as$u20$core..fmt..Display$GT$3fmt17h61b6017d69bd4a28E@Base 3.2.0
 _ZN72_$LT$core..str..pattern..StrSearcherImpl$u20$as$u20$core..fmt..Debug$GT$3fmt17h6b1bc4eaf033331dE@Base 3.2.0
 _ZN72_$LT$gimli..read..abbrev..Attributes$u20$as$u20$core..cmp..PartialEq$GT$2eq17h977c652ba10465beE@Base 3.2.0
 _ZN72_$LT$gimli..read..cfi..CieOffsetEncoding$u20$as$u20$core..fmt..Debug$GT$3fmt17h05f05809a6bc9e8dE@Base 3.2.0
 _ZN72_$LT$gimli..read..reader..ReaderOffsetId$u20$as$u20$core..fmt..Debug$GT$3fmt17h58ca8e7f6098490eE@Base 3.2.0
 _ZN72_$LT$object..pe..ImageResourceDirStringU$u20$as$u20$core..fmt..Debug$GT$3fmt17h479d005d051b3d11E@Base 3.2.0
 _ZN72_$LT$std..backtrace_rs..backtrace..Frame$u20$as$u20$core..fmt..Debug$GT$3fmt17h4e6c42abe354a2b9E@Base 3.2.0
 _ZN72_$LT$std..fs..DirBuilder$u20$as$u20$std..os..unix..fs..DirBuilderExt$GT$4mode17h98ad0d4799d3663cE@Base 3.2.0
 _ZN72_$LT$std..fs..File$u20$as$u20$std..sys..unix..kernel_copy..CopyWrite$GT$10properties17hc29b68696feb3be2E@Base 3.2.0
 _ZN72_$LT$std..os..unix..net..stream..UnixStream$u20$as$u20$std..io..Read$GT$13read_vectored17h3c30bf3c69afc889E@Base 3.2.0
 _ZN72_$LT$std..os..unix..net..stream..UnixStream$u20$as$u20$std..io..Read$GT$4read17h105721d50a877e04E@Base 3.2.0
 _ZN72_$LT$std..process..ExitCode$u20$as$u20$core..convert..From$LT$u8$GT$$GT$4from17h3095da08279c6ff2E@Base 3.2.0
 _ZN72_$LT$std..sync..mpsc..RecvTimeoutError$u20$as$u20$core..fmt..Display$GT$3fmt17h5338765a64106d78E@Base 3.2.0
 _ZN72_$LT$std..sys..unix..fs..File$u20$as$u20$std..os..fd..raw..FromRawFd$GT$11from_raw_fd17he0fded1c911851c8E@Base 3.2.0
 _ZN72_$LT$std..sys..unix..fs..File$u20$as$u20$std..os..fd..raw..IntoRawFd$GT$11into_raw_fd17h1b8ea4867107181bE@Base 3.2.0
 _ZN72_$LT$std..sys..unix..fs..FilePermissions$u20$as$u20$core..fmt..Debug$GT$3fmt17h458c542a5ff1fdb7E@Base 3.2.0
 _ZN72_$LT$std..sys..unix..net..Socket$u20$as$u20$std..os..fd..owned..AsFd$GT$5as_fd17ha560298b7196e2f9E@Base 3.2.0
 _ZN72_$LT$std..sys..unix..os..JoinPathsError$u20$as$u20$std..error..Error$GT$11description17hedbc04422a401cd2E@Base 3.2.0
 _ZN72_$LT$std..sys..unix..thread..Thread$u20$as$u20$core..ops..drop..Drop$GT$4drop17h241661110c28abb9E@Base 3.2.0
 _ZN72_$LT$std..sys..unix..time..Timespec$u20$as$u20$core..cmp..PartialOrd$GT$11partial_cmp17h3cf49b21d654a8f6E@Base 3.2.0
 _ZN73_$LT$$RF$alloc..string..String$u20$as$u20$core..str..pattern..Pattern$GT$13into_searcher17h5c6799c0a2d4142aE@Base 3.2.0
 _ZN73_$LT$core..char..convert..ParseCharError$u20$as$u20$std..error..Error$GT$11description17h27ed10113e72184aE@Base 3.2.0
 _ZN73_$LT$core..char..decode..DecodeUtf16Error$u20$as$u20$core..fmt..Debug$GT$3fmt17he7c716435e5ed54cE@Base 3.2.0
 _ZN73_$LT$core..fmt..num..LowerHex$u20$as$u20$core..fmt..num..GenericRadix$GT$5digit17hfadfdd61ae206ef8E@Base 3.2.0
 _ZN73_$LT$core..fmt..num..UpperHex$u20$as$u20$core..fmt..num..GenericRadix$GT$5digit17h7957a8618590a00fE@Base 3.2.0
 _ZN73_$LT$core..num..bignum..tests..Big8x3$u20$as$u20$core..cmp..PartialEq$GT$2eq17hfd3f5af321c0824fE@Base 3.2.0
 _ZN73_$LT$core..num..dec2flt..ParseFloatError$u20$as$u20$std..error..Error$GT$11description17hb0f630a788b9a8e6E@Base 3.2.0
 _ZN73_$LT$core..num..dec2flt..common..AsciiStr$u20$as$u20$core..fmt..Debug$GT$3fmt17h64006ba09d67d3faE@Base 3.2.0
 _ZN73_$LT$core..num..dec2flt..common..BiasedFp$u20$as$u20$core..fmt..Debug$GT$3fmt17h144268bd8d3182dcE@Base 3.2.0
 _ZN73_$LT$core..num..flt2dec..decoder..Decoded$u20$as$u20$core..fmt..Debug$GT$3fmt17hf68ca0bb349ad9f0E@Base 3.2.0
 _ZN73_$LT$core..panic..panic_info..PanicInfo$u20$as$u20$core..fmt..Display$GT$3fmt17hcafa5d8d01207b5aE@Base 3.2.0
 _ZN73_$LT$core..time..Duration$u20$as$u20$core..ops..arith..Div$LT$u32$GT$$GT$3div17h8858c01a40d85965E@Base 3.2.0
 _ZN73_$LT$core..time..Duration$u20$as$u20$core..ops..arith..Mul$LT$u32$GT$$GT$3mul17h35be7e51b26c9ebcE@Base 3.2.0
 _ZN73_$LT$object..pe..ImageArchiveMemberHeader$u20$as$u20$core..fmt..Debug$GT$3fmt17h6a72f405ce8a406fE@Base 3.2.0
 _ZN73_$LT$object..pe..ImageDelayloadDescriptor$u20$as$u20$core..fmt..Debug$GT$3fmt17h1223e34d8ed03737E@Base 3.2.0
 _ZN73_$LT$object..pe..ImageDynamicRelocation32$u20$as$u20$core..fmt..Debug$GT$3fmt17h57d6120fa1664906E@Base 3.2.0
 _ZN73_$LT$object..pe..ImageDynamicRelocation64$u20$as$u20$core..fmt..Debug$GT$3fmt17ha867d9ecb4a15bbbE@Base 3.2.0
 _ZN73_$LT$object..pe..ImageSeparateDebugHeader$u20$as$u20$core..fmt..Debug$GT$3fmt17hc928c984e716bba1E@Base 3.2.0
 _ZN73_$LT$std..backtrace_rs..symbolize..Symbol$u20$as$u20$core..fmt..Debug$GT$3fmt17h322f93e824672392E@Base 3.2.0
 _ZN73_$LT$std..env..Args$u20$as$u20$core..iter..traits..iterator..Iterator$GT$4next17h6545000bf4bb7d11E@Base 3.2.0
 _ZN73_$LT$std..env..Args$u20$as$u20$core..iter..traits..iterator..Iterator$GT$9size_hint17hc52f22bc0b93b6b5E@Base 3.2.0
 _ZN73_$LT$std..env..Vars$u20$as$u20$core..iter..traits..iterator..Iterator$GT$4next17hba5d2a6d59c188f3E@Base 3.2.0
 _ZN73_$LT$std..env..Vars$u20$as$u20$core..iter..traits..iterator..Iterator$GT$9size_hint17h302fed85b17fd035E@Base 3.2.0
 _ZN73_$LT$std..ffi..c_str..FromVecWithNulError$u20$as$u20$core..fmt..Debug$GT$3fmt17hd67283ab158099b7E@Base 3.2.0
 _ZN73_$LT$std..os..unix..net..addr..SocketAddr$u20$as$u20$core..fmt..Debug$GT$3fmt17hdce88fae642b9f02E@Base 3.2.0
 _ZN73_$LT$std..os..unix..net..stream..UnixStream$u20$as$u20$std..io..Write$GT$14write_vectored17h39cd589b4f737bd8E@Base 3.2.0
 _ZN73_$LT$std..os..unix..net..stream..UnixStream$u20$as$u20$std..io..Write$GT$5flush17h3dcae69121fd81a2E@Base 3.2.0
 _ZN73_$LT$std..os..unix..net..stream..UnixStream$u20$as$u20$std..io..Write$GT$5write17h26619b517dffc3c6E@Base 3.2.0
 _ZN73_$LT$std..sys..unix..fd..FileDesc$u20$as$u20$std..os..fd..owned..AsFd$GT$5as_fd17ha8981af3b633e02eE@Base 3.2.0
 _ZN73_$LT$std..sys..unix..net..Socket$u20$as$u20$std..os..fd..raw..AsRawFd$GT$9as_raw_fd17h44c65c46f46736dcE@Base 3.2.0
 _ZN73_$LT$std..sys..unix..os..JoinPathsError$u20$as$u20$core..fmt..Display$GT$3fmt17h1b09dfdbe1ea9882E@Base 3.2.0
 _ZN73_$LT$std..sys..unix..time..inner..Instant$u20$as$u20$core..fmt..Debug$GT$3fmt17h58bd834877f60cc4E@Base 3.2.0
 _ZN73_$LT$std..sys_common..process..CommandEnv$u20$as$u20$core..fmt..Debug$GT$3fmt17h837d4505116851baE@Base 3.2.0
 _ZN74_$LT$core..char..convert..CharTryFromError$u20$as$u20$core..fmt..Debug$GT$3fmt17h39d4f904b13f5f04E@Base 3.2.0
 _ZN74_$LT$core..char..convert..ParseCharError$u20$as$u20$core..fmt..Display$GT$3fmt17h7efa83b261da8c36E@Base 3.2.0
 _ZN74_$LT$core..char..decode..DecodeUtf16Error$u20$as$u20$std..error..Error$GT$11description17ha95912f8d5d0f6f0E@Base 3.2.0
 _ZN74_$LT$core..num..bignum..tests..Big8x3$u20$as$u20$core..cmp..PartialOrd$GT$11partial_cmp17h92795262c2cb6bd0E@Base 3.2.0
 _ZN74_$LT$core..num..dec2flt..ParseFloatError$u20$as$u20$core..fmt..Display$GT$3fmt17h57c8055977b14954E@Base 3.2.0
 _ZN74_$LT$core..str..iter..SplitAsciiWhitespace$u20$as$u20$core..fmt..Debug$GT$3fmt17h525e11cd3e3e2c6fE@Base 3.2.0
 _ZN74_$LT$core..str..pattern..CharSliceSearcher$u20$as$u20$core..fmt..Debug$GT$3fmt17h0c5ff012ba2420c8E@Base 3.2.0
 _ZN74_$LT$gimli..read..lists..ListsHeader$u20$as$u20$core..default..Default$GT$7default17h4a60ba63f8072d52E@Base 3.2.0
 _ZN74_$LT$gimli..read..loclists..LocListsFormat$u20$as$u20$core..fmt..Debug$GT$3fmt17hde4d00982e063ddfE@Base 3.2.0
 _ZN74_$LT$object..pe..ImageRuntimeFunctionEntry$u20$as$u20$core..fmt..Debug$GT$3fmt17h28814a7f048b0aecE@Base 3.2.0
 _ZN74_$LT$std..fs..OpenOptions$u20$as$u20$std..os..unix..fs..OpenOptionsExt$GT$12custom_flags17h6d7117e9409e38d8E@Base 3.2.0
 _ZN74_$LT$std..fs..OpenOptions$u20$as$u20$std..os..unix..fs..OpenOptionsExt$GT$4mode17h94a9d1fa758dd006E@Base 3.2.0
 _ZN74_$LT$std..fs..Permissions$u20$as$u20$std..os..unix..fs..PermissionsExt$GT$4mode17h23cc554daa6bded1E@Base 3.2.0
 _ZN74_$LT$std..fs..Permissions$u20$as$u20$std..os..unix..fs..PermissionsExt$GT$8set_mode17hc2cce50004be26f4E@Base 3.2.0
 _ZN74_$LT$std..fs..Permissions$u20$as$u20$std..os..unix..fs..PermissionsExt$GT$9from_mode17h917437087ffdb489E@Base 3.2.0
 _ZN74_$LT$std..sync..barrier..BarrierWaitResult$u20$as$u20$core..fmt..Debug$GT$3fmt17hb4cd6611e7c67eb4E@Base 3.2.0
 _ZN74_$LT$std..sync..condvar..WaitTimeoutResult$u20$as$u20$core..fmt..Debug$GT$3fmt17h533cc8c225877bb5E@Base 3.2.0
 _ZN74_$LT$std..sys..unix..fd..FileDesc$u20$as$u20$std..os..fd..raw..AsRawFd$GT$9as_raw_fd17hd3961d6153b14e3eE@Base 3.2.0
 _ZN74_$LT$std..sys_common..net..LookupHost$u20$as$u20$core..ops..drop..Drop$GT$4drop17hffc5c7676194bb2dE@Base 3.2.0
 _ZN74_$LT$std..sys_common..process..CommandEnvs$u20$as$u20$core..fmt..Debug$GT$3fmt17h28c3f5c901df9ca9E@Base 3.2.0
 _ZN74_$LT$std..sys_common..wtf8..Wtf8Buf$u20$as$u20$core..ops..deref..Deref$GT$5deref17h7187fc3d0989dba6E@Base 3.2.0
 _ZN75_$LT$$RF$std..fs..File$u20$as$u20$std..sys..unix..kernel_copy..CopyRead$GT$10properties17h5f99b921cffa5175E@Base 3.2.0
 _ZN75_$LT$core..char..convert..CharTryFromError$u20$as$u20$std..error..Error$GT$11description17h109efdf0357e6af0E@Base 3.2.0
 _ZN75_$LT$core..char..decode..DecodeUtf16Error$u20$as$u20$core..fmt..Display$GT$3fmt17hd1287cf07f57f72eE@Base 3.2.0
 _ZN75_$LT$gimli..read..abbrev..Attributes$u20$as$u20$core..ops..deref..Deref$GT$5deref17h3c52f6557e121128E@Base 3.2.0
 _ZN75_$LT$gimli..read..cfi..SectionBaseAddresses$u20$as$u20$core..fmt..Debug$GT$3fmt17h0025288619b289b0E@Base 3.2.0
 _ZN75_$LT$object..pe..ImageBoundImportDescriptor$u20$as$u20$core..fmt..Debug$GT$3fmt17h60edf623e621ad49E@Base 3.2.0
 _ZN75_$LT$object..pe..ImageDynamicRelocation32V2$u20$as$u20$core..fmt..Debug$GT$3fmt17h80469cf6cd37fcb5E@Base 3.2.0
 _ZN75_$LT$object..pe..ImageDynamicRelocation64V2$u20$as$u20$core..fmt..Debug$GT$3fmt17h190a8833091e5472E@Base 3.2.0
 _ZN75_$LT$object..pe..ImageLoadConfigDirectory32$u20$as$u20$core..fmt..Debug$GT$3fmt17h468e1cf9f56290ebE@Base 3.2.0
 _ZN75_$LT$object..pe..ImageLoadConfigDirectory64$u20$as$u20$core..fmt..Debug$GT$3fmt17ha28523088f0967aaE@Base 3.2.0
 _ZN75_$LT$std..env..ArgsOs$u20$as$u20$core..iter..traits..iterator..Iterator$GT$4next17h3513eb642e71262fE@Base 3.2.0
 _ZN75_$LT$std..env..ArgsOs$u20$as$u20$core..iter..traits..iterator..Iterator$GT$9size_hint17h740c8daa8b26bdf9E@Base 3.2.0
 _ZN75_$LT$std..env..VarsOs$u20$as$u20$core..iter..traits..iterator..Iterator$GT$4next17h32cde9f0116fef98E@Base 3.2.0
 _ZN75_$LT$std..env..VarsOs$u20$as$u20$core..iter..traits..iterator..Iterator$GT$9size_hint17h5e0c88fa8b7130beE@Base 3.2.0
 _ZN75_$LT$std..ffi..c_str..FromBytesWithNulError$u20$as$u20$core..fmt..Debug$GT$3fmt17h5dadb6d62bc4c052E@Base 3.2.0
 _ZN75_$LT$std..ffi..c_str..FromVecWithNulError$u20$as$u20$core..fmt..Display$GT$3fmt17h2eaabb90e7860034E@Base 3.2.0
 _ZN75_$LT$std..fs..ReadDir$u20$as$u20$core..iter..traits..iterator..Iterator$GT$4next17h87c63fb509f44713E@Base 3.2.0
 _ZN75_$LT$std..os..linux..process..PidFd$u20$as$u20$std..os..fd..owned..AsFd$GT$5as_fd17hd036de83362bfc46E@Base 3.2.0
 _ZN75_$LT$std..os..unix..net..listener..Incoming$u20$as$u20$core..fmt..Debug$GT$3fmt17hb28858cb19cabb96E@Base 3.2.0
 _ZN75_$LT$std..os..unix..net..stream..UnixStream$u20$as$u20$core..fmt..Debug$GT$3fmt17hf705d251c20800edE@Base 3.2.0
 _ZN75_$LT$std..sys..unix..net..Socket$u20$as$u20$std..os..fd..raw..FromRawFd$GT$11from_raw_fd17had38a4425cb75857E@Base 3.2.0
 _ZN75_$LT$std..sys..unix..net..Socket$u20$as$u20$std..os..fd..raw..IntoRawFd$GT$11into_raw_fd17he86885098e696ee9E@Base 3.2.0
 _ZN75_$LT$std..sys..unix..pipe..AnonPipe$u20$as$u20$std..os..fd..owned..AsFd$GT$5as_fd17h80c40b81e0638c99E@Base 3.2.0
 _ZN75_$LT$std..sys_common..condvar..Condvar$u20$as$u20$core..ops..drop..Drop$GT$4drop17he3315a0a4ae9d75bE@Base 3.2.0
 _ZN75_$LT$usize$u20$as$u20$core..slice..index..SliceIndex$LT$$u5b$T$u5d$$GT$$GT$13get_unchecked8comptime17h5f31945747d33823E@Base 3.2.0
 _ZN75_$LT$usize$u20$as$u20$core..slice..index..SliceIndex$LT$$u5b$T$u5d$$GT$$GT$17get_unchecked_mut8comptime17hee97dc9506e1db93E@Base 3.2.0
 _ZN76_$LT$$RF$std..fs..File$u20$as$u20$std..sys..unix..kernel_copy..CopyWrite$GT$10properties17hf259c18793a198f4E@Base 3.2.0
 _ZN76_$LT$$RF$std..os..unix..net..stream..UnixStream$u20$as$u20$std..io..Read$GT$13read_vectored17h2d6f777fdc139375E@Base 3.2.0
 _ZN76_$LT$$RF$std..os..unix..net..stream..UnixStream$u20$as$u20$std..io..Read$GT$4read17h4b31d2fe938172baE@Base 3.2.0
 _ZN76_$LT$core..char..convert..CharTryFromError$u20$as$u20$core..fmt..Display$GT$3fmt17h8cb00c5e460813fdE@Base 3.2.0
 _ZN76_$LT$core..num..nonzero..NonZeroI8$u20$as$u20$core..str..traits..FromStr$GT$8from_str17h0980c5a7cbcab153E@Base 3.2.0
 _ZN76_$LT$core..num..nonzero..NonZeroU8$u20$as$u20$core..str..traits..FromStr$GT$8from_str17h97e19035dbc477b7E@Base 3.2.0
 _ZN76_$LT$gimli..read..rnglists..RangeListsFormat$u20$as$u20$core..fmt..Debug$GT$3fmt17he9d82fbd7a5b1432E@Base 3.2.0
 _ZN76_$LT$object..pe..ImageDynamicRelocationTable$u20$as$u20$core..fmt..Debug$GT$3fmt17hf0cc4df58bf4c790E@Base 3.2.0
 _ZN76_$LT$object..pe..ImageResourceDirectoryEntry$u20$as$u20$core..fmt..Debug$GT$3fmt17h04ce8852c4c48353E@Base 3.2.0
 _ZN76_$LT$std..error..Chain$u20$as$u20$core..iter..traits..iterator..Iterator$GT$4next17h6ac9f32167c8e0cdE@Base 3.2.0
 _ZN76_$LT$std..ffi..c_str..FromBytesUntilNulError$u20$as$u20$core..fmt..Debug$GT$3fmt17h956928db7dc0b2efE@Base 3.2.0
 _ZN76_$LT$std..ffi..c_str..FromBytesWithNulError$u20$as$u20$std..error..Error$GT$11description17hc237f2fa840282ecE@Base 3.2.0
 _ZN76_$LT$std..net..addr..SocketAddr$u20$as$u20$std..net..addr..ToSocketAddrs$GT$15to_socket_addrs17h5edb959c4b069425E@Base 3.2.0
 _ZN76_$LT$std..os..linux..process..PidFd$u20$as$u20$std..os..fd..raw..AsRawFd$GT$9as_raw_fd17hfd29c84c1c885e4fE@Base 3.2.0
 _ZN76_$LT$std..process..Command$u20$as$u20$std..os..unix..process..CommandExt$GT$13process_group17h891c50da3741f3efE@Base 3.2.0
 _ZN76_$LT$std..process..Command$u20$as$u20$std..os..unix..process..CommandExt$GT$3gid17h47f03dec414c8589E@Base 3.2.0
 _ZN76_$LT$std..process..Command$u20$as$u20$std..os..unix..process..CommandExt$GT$3uid17h32c8f84020b7678eE@Base 3.2.0
 _ZN76_$LT$std..process..Command$u20$as$u20$std..os..unix..process..CommandExt$GT$4exec17ha276f509fb37efb0E@Base 3.2.0
 _ZN76_$LT$std..process..Command$u20$as$u20$std..os..unix..process..CommandExt$GT$6groups17h0eb0d0b3e3646524E@Base 3.2.0
 _ZN76_$LT$std..sys..unix..fd..FileDesc$u20$as$u20$std..os..fd..raw..FromRawFd$GT$11from_raw_fd17h11ca18c494e253b3E@Base 3.2.0
 _ZN76_$LT$std..sys..unix..fd..FileDesc$u20$as$u20$std..os..fd..raw..IntoRawFd$GT$11into_raw_fd17h32abb2e0fa39ffbeE@Base 3.2.0
 _ZN76_$LT$std..sys..unix..pipe..AnonPipe$u20$as$u20$std..os..fd..raw..AsRawFd$GT$9as_raw_fd17h07793bf9128614adE@Base 3.2.0
 _ZN76_$LT$std..sys..unix..time..inner..SystemTime$u20$as$u20$core..fmt..Debug$GT$3fmt17h6f31bd8ee8c6afb3E@Base 3.2.0
 _ZN77_$LT$$RF$std..os..unix..net..stream..UnixStream$u20$as$u20$std..io..Write$GT$14write_vectored17h87463fce6c98b93bE@Base 3.2.0
 _ZN77_$LT$$RF$std..os..unix..net..stream..UnixStream$u20$as$u20$std..io..Write$GT$5flush17h91fdf6bd00df9d88E@Base 3.2.0
 _ZN77_$LT$$RF$std..os..unix..net..stream..UnixStream$u20$as$u20$std..io..Write$GT$5write17h53c6283ac0848eb7E@Base 3.2.0
 _ZN77_$LT$core..num..flt2dec..decoder..FullDecoded$u20$as$u20$core..fmt..Debug$GT$3fmt17h9bed771b7ca94c40E@Base 3.2.0
 _ZN77_$LT$core..num..nonzero..NonZeroI16$u20$as$u20$core..str..traits..FromStr$GT$8from_str17h5fd05d0248f8c95eE@Base 3.2.0
 _ZN77_$LT$core..num..nonzero..NonZeroI32$u20$as$u20$core..str..traits..FromStr$GT$8from_str17haecc14cb960bfd3aE@Base 3.2.0
 _ZN77_$LT$core..num..nonzero..NonZeroI64$u20$as$u20$core..str..traits..FromStr$GT$8from_str17h0e43e221bf16beaeE@Base 3.2.0
 _ZN77_$LT$core..num..nonzero..NonZeroU16$u20$as$u20$core..str..traits..FromStr$GT$8from_str17hd0ab40ec34687b2aE@Base 3.2.0
 _ZN77_$LT$core..num..nonzero..NonZeroU32$u20$as$u20$core..str..traits..FromStr$GT$8from_str17hb2d276c513e5ff7eE@Base 3.2.0
 _ZN77_$LT$core..num..nonzero..NonZeroU64$u20$as$u20$core..str..traits..FromStr$GT$8from_str17hce8d12576cb30d4eE@Base 3.2.0
 _ZN77_$LT$object..pe..ImageArmRuntimeFunctionEntry$u20$as$u20$core..fmt..Debug$GT$3fmt17hd89ec5f4ec795d68E@Base 3.2.0
 _ZN77_$LT$object..pe..ImageLoadConfigCodeIntegrity$u20$as$u20$core..fmt..Debug$GT$3fmt17hab96d0f1167ff877E@Base 3.2.0
 _ZN77_$LT$object..pe..ImageResourceDirectoryString$u20$as$u20$core..fmt..Debug$GT$3fmt17h4f86dfcbd041a0b3E@Base 3.2.0
 _ZN77_$LT$std..backtrace_rs..symbolize..SymbolName$u20$as$u20$core..fmt..Debug$GT$3fmt17h4b1d98a7c7a1745cE@Base 3.2.0
 _ZN77_$LT$std..collections..hash..map..RandomState$u20$as$u20$core..fmt..Debug$GT$3fmt17h8bca0e6e5ed8f8f4E@Base 3.2.0
 _ZN77_$LT$std..ffi..c_str..FromBytesWithNulError$u20$as$u20$core..fmt..Display$GT$3fmt17h925a0dbbf7a3de83E@Base 3.2.0
 _ZN77_$LT$std..os..unix..net..addr..AsciiEscaped$u20$as$u20$core..fmt..Display$GT$3fmt17hc28d33065248bad9E@Base 3.2.0
 _ZN77_$LT$std..process..Command$u20$as$u20$std..os..linux..process..CommandExt$GT$12create_pidfd17hae9d54c8de5e5e4bE@Base 3.2.0
 _ZN77_$LT$std..sys_common..wtf8..Wtf8Buf$u20$as$u20$core..ops..deref..DerefMut$GT$9deref_mut17h4b2d0707aeb8dc34E@Base 3.2.0
 _ZN78_$LT$core..convert..Infallible$u20$as$u20$core..convert..From$LT$$u21$$GT$$GT$4from17h2f01fcac3d0bf467E@Base 3.2.0
 _ZN78_$LT$core..num..nonzero..NonZeroI128$u20$as$u20$core..str..traits..FromStr$GT$8from_str17ha7792f7a302b6850E@Base 3.2.0
 _ZN78_$LT$core..num..nonzero..NonZeroU128$u20$as$u20$core..str..traits..FromStr$GT$8from_str17he6254d73f87103e2E@Base 3.2.0
 _ZN78_$LT$object..read..coff..section..SectionTable$u20$as$u20$core..fmt..Debug$GT$3fmt17h4b593798a2fdfb11E@Base 3.2.0
 _ZN78_$LT$std..ffi..c_str..FromBytesUntilNulError$u20$as$u20$core..fmt..Display$GT$3fmt17hbade15e1f8dd207fE@Base 3.2.0
 _ZN78_$LT$std..net..addr..SocketAddrV4$u20$as$u20$std..net..addr..ToSocketAddrs$GT$15to_socket_addrs17h3ec03e35d42d9adcE@Base 3.2.0
 _ZN78_$LT$std..net..addr..SocketAddrV6$u20$as$u20$std..net..addr..ToSocketAddrs$GT$15to_socket_addrs17hc881f59e16bf39d9E@Base 3.2.0
 _ZN78_$LT$std..os..linux..process..PidFd$u20$as$u20$std..os..fd..raw..FromRawFd$GT$11from_raw_fd17ha83bc591c8f9c4cbE@Base 3.2.0
 _ZN78_$LT$std..os..linux..process..PidFd$u20$as$u20$std..os..fd..raw..IntoRawFd$GT$11into_raw_fd17hef42f11d0fbe1762E@Base 3.2.0
 _ZN78_$LT$std..sys..unix..pipe..AnonPipe$u20$as$u20$std..os..fd..raw..FromRawFd$GT$11from_raw_fd17h5a00aa523d96ca7dE@Base 3.2.0
 _ZN78_$LT$std..sys..unix..pipe..AnonPipe$u20$as$u20$std..os..fd..raw..IntoRawFd$GT$11into_raw_fd17hb2b4e9a353e1be91E@Base 3.2.0
 _ZN78_$LT$std..sys_common..mutex..MovableMutex$u20$as$u20$core..ops..drop..Drop$GT$4drop17h7905df3d7ca3eecfE@Base 3.2.0
 _ZN79_$LT$$RF$$u5b$u8$u5d$$u20$as$u20$std..ffi..c_str..CString..new..SpecNewImpl$GT$13spec_new_impl17h286f20fdcffe3700E@Base 3.2.0
 _ZN79_$LT$alloc..string..Drain$u20$as$u20$core..iter..traits..iterator..Iterator$GT$9size_hint17h9c8d59df4d2b536aE@Base 3.2.0
 _ZN79_$LT$core..fmt..builders..PadAdapterState$u20$as$u20$core..default..Default$GT$7default17h4605fa62d0b73952E@Base 3.2.0
 _ZN79_$LT$core..num..dec2flt..decimal..Decimal$u20$as$u20$core..default..Default$GT$7default17hfa8dafd284f2a660E@Base 3.2.0
 _ZN79_$LT$core..num..nonzero..NonZeroIsize$u20$as$u20$core..str..traits..FromStr$GT$8from_str17h58b68bff44a8e7fdE@Base 3.2.0
 _ZN79_$LT$core..num..nonzero..NonZeroUsize$u20$as$u20$core..str..traits..FromStr$GT$8from_str17h5899a54f394b3e5cE@Base 3.2.0
 _ZN79_$LT$core..time..Duration$u20$as$u20$core..ops..arith..DivAssign$LT$u32$GT$$GT$10div_assign17h58c9472103e2ef8cE@Base 3.2.0
 _ZN79_$LT$core..time..Duration$u20$as$u20$core..ops..arith..MulAssign$LT$u32$GT$$GT$10mul_assign17hed33d5fae8e48b95E@Base 3.2.0
 _ZN79_$LT$object..pe..ImageAlphaRuntimeFunctionEntry$u20$as$u20$core..fmt..Debug$GT$3fmt17h8cd712ab376482adE@Base 3.2.0
 _ZN79_$LT$object..pe..ImageArm64RuntimeFunctionEntry$u20$as$u20$core..fmt..Debug$GT$3fmt17h08cc570329153b05E@Base 3.2.0
 _ZN79_$LT$object..pe..ImageAuxSymbolFunctionBeginEnd$u20$as$u20$core..fmt..Debug$GT$3fmt17he167736d413b022eE@Base 3.2.0
 _ZN79_$LT$std..backtrace_rs..symbolize..SymbolName$u20$as$u20$core..fmt..Display$GT$3fmt17h05b3cc43b82d5645E@Base 3.2.0
 _ZN79_$LT$std..collections..hash..map..DefaultHasher$u20$as$u20$core..fmt..Debug$GT$3fmt17ha6d590838b562c3aE@Base 3.2.0
 _ZN79_$LT$std..env..SplitPaths$u20$as$u20$core..iter..traits..iterator..Iterator$GT$4next17h0e6c855a6e5ec2d5E@Base 3.2.0
 _ZN79_$LT$std..env..SplitPaths$u20$as$u20$core..iter..traits..iterator..Iterator$GT$9size_hint17hc128fc8c25fea84fE@Base 3.2.0
 _ZN79_$LT$std..ffi..c_str..FromBytesWithNulErrorKind$u20$as$u20$core..fmt..Debug$GT$3fmt17hceebbecc6d0d6ee1E@Base 3.2.0
 _ZN79_$LT$std..os..unix..net..datagram..UnixDatagram$u20$as$u20$core..fmt..Debug$GT$3fmt17h644075e74ac5f6e2E@Base 3.2.0
 _ZN79_$LT$std..os..unix..net..listener..UnixListener$u20$as$u20$core..fmt..Debug$GT$3fmt17h07ebe34ffce71d8cE@Base 3.2.0
 _ZN79_$LT$std..sys_common..process..CommandEnv$u20$as$u20$core..default..Default$GT$7default17ha51c0ea62fe17f25E@Base 3.2.0
 _ZN80_$LT$$LP$$RP$$u20$as$u20$core..iter..traits..collect..Extend$LT$$LP$$RP$$GT$$GT$10extend_one17h1c5dde4c7e7bf167E@Base 3.2.0
 _ZN80_$LT$alloc..vec..Vec$LT$u8$GT$$u20$as$u20$core..convert..From$LT$$RF$str$GT$$GT$4from17hd0b9ae1f43deffaeE@Base 3.2.0
 _ZN80_$LT$core..core_arch..aarch64..neon..float64x1_t$u20$as$u20$core..fmt..Debug$GT$3fmt17hddcb1fef0959266aE@Base 3.2.0
 _ZN80_$LT$core..core_arch..aarch64..neon..float64x2_t$u20$as$u20$core..fmt..Debug$GT$3fmt17h3226ef0b547c8e28E@Base 3.2.0
 _ZN80_$LT$gimli..read..abbrev..AttributeSpecification$u20$as$u20$core..fmt..Debug$GT$3fmt17h636ef699c54a66d7E@Base 3.2.0
 _ZN80_$LT$std..backtrace_rs..types..BytesOrWideString$u20$as$u20$core..fmt..Debug$GT$3fmt17h1686f9110da2c41fE@Base 3.2.0
 _ZN80_$LT$std..path..Components$u20$as$u20$core..iter..traits..iterator..Iterator$GT$4next17hd3b6a6410f72fc0eE@Base 3.2.0
 _ZN80_$LT$std..process..Stdio$u20$as$u20$core..convert..From$LT$std..fs..File$GT$$GT$4from17hf0dd67221c8b6363E@Base 3.2.0
 _ZN80_$LT$std..sys_common..rwlock..MovableRWLock$u20$as$u20$core..ops..drop..Drop$GT$4drop17h314bdda0afefd44fE@Base 3.2.0
 _ZN80_$LT$std..sys_common..thread_local_key..Key$u20$as$u20$core..ops..drop..Drop$GT$4drop17h2316606e025093e3E@Base 3.2.0
 _ZN81_$LT$alloc..string..Drain$u20$as$u20$core..convert..AsRef$LT$$u5b$u8$u5d$$GT$$GT$6as_ref17h84785dc6195d86d1E@Base 3.2.0
 _ZN81_$LT$object..pe..ImageAlpha64RuntimeFunctionEntry$u20$as$u20$core..fmt..Debug$GT$3fmt17h364eb3f9132d7b73E@Base 3.2.0
 _ZN81_$LT$std..io..buffered..bufwriter..WriterPanicked$u20$as$u20$core..fmt..Debug$GT$3fmt17ha5574dffe33bec61E@Base 3.2.0
 _ZN81_$LT$std..sys..unix..stack_overflow..Handler$u20$as$u20$core..ops..drop..Drop$GT$4drop17h1e194d417a27c351E@Base 3.2.0
 _ZN82_$LT$core..char..EscapeDebug$u20$as$u20$core..iter..traits..iterator..Iterator$GT$4next17h5dc7f57f6ca66054E@Base 3.2.0
 _ZN82_$LT$core..char..EscapeDebug$u20$as$u20$core..iter..traits..iterator..Iterator$GT$9size_hint17h67057c93902751a0E@Base 3.2.0
 _ZN82_$LT$core..char..ToLowercase$u20$as$u20$core..iter..traits..iterator..Iterator$GT$4next17hdd60be4133adf59bE@Base 3.2.0
 _ZN82_$LT$core..char..ToLowercase$u20$as$u20$core..iter..traits..iterator..Iterator$GT$9size_hint17hff0683a087b7fc11E@Base 3.2.0
 _ZN82_$LT$core..char..ToUppercase$u20$as$u20$core..iter..traits..iterator..Iterator$GT$4next17h52d1fa460528273bE@Base 3.2.0
 _ZN82_$LT$core..char..ToUppercase$u20$as$u20$core..iter..traits..iterator..Iterator$GT$9size_hint17hd4db7fb98a9dc981E@Base 3.2.0
 _ZN82_$LT$core..core_arch..aarch64..neon..float64x1x2_t$u20$as$u20$core..fmt..Debug$GT$3fmt17h33d8c272e1bb0ce7E@Base 3.2.0
 _ZN82_$LT$core..core_arch..aarch64..neon..float64x1x3_t$u20$as$u20$core..fmt..Debug$GT$3fmt17h3bbc775b9ade1073E@Base 3.2.0
 _ZN82_$LT$core..core_arch..aarch64..neon..float64x1x4_t$u20$as$u20$core..fmt..Debug$GT$3fmt17hd49d765fa4860e58E@Base 3.2.0
 _ZN82_$LT$core..core_arch..aarch64..neon..float64x2x2_t$u20$as$u20$core..fmt..Debug$GT$3fmt17hc742fe95c5957db9E@Base 3.2.0
 _ZN82_$LT$core..core_arch..aarch64..neon..float64x2x3_t$u20$as$u20$core..fmt..Debug$GT$3fmt17haaeb42a1eb623b6dE@Base 3.2.0
 _ZN82_$LT$core..core_arch..aarch64..neon..float64x2x4_t$u20$as$u20$core..fmt..Debug$GT$3fmt17h39505fca52da0143E@Base 3.2.0
 _ZN82_$LT$dyn$u20$core..any..Any$u2b$core..marker..Send$u20$as$u20$core..fmt..Debug$GT$3fmt17h2bc9c90f01e52fbbE@Base 3.2.0
 _ZN82_$LT$std..io..buffered..bufwriter..WriterPanicked$u20$as$u20$std..error..Error$GT$11description17h2a0ce666e7126be8E@Base 3.2.0
 _ZN82_$LT$std..net..tcp..Incoming$u20$as$u20$core..iter..traits..iterator..Iterator$GT$4next17h1cfe724ab99a1bd5E@Base 3.2.0
 _ZN82_$LT$std..net..tcp..TcpStream$u20$as$u20$std..sys..unix..kernel_copy..CopyRead$GT$10properties17h98660ae376ff9d25E@Base 3.2.0
 _ZN82_$LT$std..os..unix..net..ancillary..AncillaryError$u20$as$u20$core..fmt..Debug$GT$3fmt17h2014d57ded68ddc1E@Base 3.2.0
 _ZN82_$LT$std..process..ExitStatus$u20$as$u20$std..os..unix..process..ExitStatusExt$GT$11core_dumped17h0b2d1e7974b99c49E@Base 3.2.0
 _ZN82_$LT$std..process..ExitStatus$u20$as$u20$std..os..unix..process..ExitStatusExt$GT$14stopped_signal17hc2688fc05edda2e3E@Base 3.2.0
 _ZN82_$LT$std..process..ExitStatus$u20$as$u20$std..os..unix..process..ExitStatusExt$GT$6signal17h924c58170b9dfae0E@Base 3.2.0
 _ZN82_$LT$std..process..ExitStatus$u20$as$u20$std..os..unix..process..ExitStatusExt$GT$8from_raw17hecfae73566219156E@Base 3.2.0
 _ZN82_$LT$std..process..ExitStatus$u20$as$u20$std..os..unix..process..ExitStatusExt$GT$8into_raw17h4dd3a252313d7e52E@Base 3.2.0
 _ZN82_$LT$std..process..ExitStatus$u20$as$u20$std..os..unix..process..ExitStatusExt$GT$9continued17hc02d5dd27fcb329fE@Base 3.2.0
 _ZN82_$LT$std..sys..unix..os..Env$u20$as$u20$core..iter..traits..iterator..Iterator$GT$4next17h2928e2bbfc4c8207E@Base 3.2.0
 _ZN82_$LT$std..sys..unix..os..Env$u20$as$u20$core..iter..traits..iterator..Iterator$GT$9size_hint17h259beebc6f66a746E@Base 3.2.0
 _ZN83_$LT$std..io..buffered..bufwriter..WriterPanicked$u20$as$u20$core..fmt..Display$GT$3fmt17hbfdf992f6bf6971aE@Base 3.2.0
 _ZN83_$LT$std..io..stdio..StdinLock$u20$as$u20$std..sys..unix..kernel_copy..CopyRead$GT$10properties17h8db8e780f0fff672E@Base 3.2.0
 _ZN83_$LT$std..net..tcp..TcpStream$u20$as$u20$std..sys..unix..kernel_copy..CopyWrite$GT$10properties17h5908d30bd1f0b622E@Base 3.2.0
 _ZN83_$LT$std..os..unix..net..ancillary..SocketAncillary$u20$as$u20$core..fmt..Debug$GT$3fmt17hadc312593de5e0f2E@Base 3.2.0
 _ZN83_$LT$std..process..ChildStderr$u20$as$u20$std..sys..unix..kernel_copy..CopyRead$GT$10properties17h8e6057b72022d6b4E@Base 3.2.0
 _ZN83_$LT$std..process..ChildStdin$u20$as$u20$std..sys..unix..kernel_copy..CopyWrite$GT$10properties17h0658295f47f78406E@Base 3.2.0
 _ZN83_$LT$std..process..ChildStdout$u20$as$u20$std..sys..unix..kernel_copy..CopyRead$GT$10properties17h0b9227018571bbfcE@Base 3.2.0
 _ZN84_$LT$$LP$std..net..ip..IpAddr$C$u16$RP$$u20$as$u20$std..net..addr..ToSocketAddrs$GT$15to_socket_addrs17hfd4aa23806813589E@Base 3.2.0
 _ZN84_$LT$core..char..EscapeDefault$u20$as$u20$core..iter..traits..iterator..Iterator$GT$3nth17hfb1ba87354dca6ceE@Base 3.2.0
 _ZN84_$LT$core..char..EscapeDefault$u20$as$u20$core..iter..traits..iterator..Iterator$GT$4last17h417e3e64aac8f284E@Base 3.2.0
 _ZN84_$LT$core..char..EscapeDefault$u20$as$u20$core..iter..traits..iterator..Iterator$GT$4next17h079c9ec7387a3842E@Base 3.2.0
 _ZN84_$LT$core..char..EscapeUnicode$u20$as$u20$core..iter..traits..iterator..Iterator$GT$4last17h20ebd664234648d0E@Base 3.2.0
 _ZN84_$LT$core..char..EscapeUnicode$u20$as$u20$core..iter..traits..iterator..Iterator$GT$4next17h158c2cdfc5d20c9eE@Base 3.2.0
 _ZN84_$LT$core..panicking..assert_matches_failed..Pattern$u20$as$u20$core..fmt..Debug$GT$3fmt17h85d2b84b53f25d97E@Base 3.2.0
 _ZN84_$LT$std..env..Args$u20$as$u20$core..iter..traits..exact_size..ExactSizeIterator$GT$3len17hcebc29e510707dddE@Base 3.2.0
 _ZN84_$LT$std..env..Args$u20$as$u20$core..iter..traits..exact_size..ExactSizeIterator$GT$8is_empty17haacdb02f71793fccE@Base 3.2.0
 _ZN84_$LT$std..process..CommandArgs$u20$as$u20$core..iter..traits..iterator..Iterator$GT$4next17hfe21f56e44bcae90E@Base 3.2.0
 _ZN84_$LT$std..process..CommandArgs$u20$as$u20$core..iter..traits..iterator..Iterator$GT$9size_hint17h079b6bead16e457bE@Base 3.2.0
 _ZN85_$LT$$LP$alloc..string..String$C$u16$RP$$u20$as$u20$std..net..addr..ToSocketAddrs$GT$15to_socket_addrs17h1cf0ea4ebb91d4d2E@Base 3.2.0
 _ZN85_$LT$alloc..string..String..retain..SetLenOnDrop$u20$as$u20$core..ops..drop..Drop$GT$4drop17h515b263b8f493084E@Base 3.2.0
 _ZN85_$LT$core..ascii..EscapeDefault$u20$as$u20$core..iter..traits..iterator..Iterator$GT$4last17h76e63039fc238c29E@Base 3.2.0
 _ZN85_$LT$core..ascii..EscapeDefault$u20$as$u20$core..iter..traits..iterator..Iterator$GT$9size_hint17he42a15051b88e2e8E@Base 3.2.0
 _ZN85_$LT$object..pe..ImageEpilogueDynamicRelocationHeader$u20$as$u20$core..fmt..Debug$GT$3fmt17h80ef90df2d78eb31E@Base 3.2.0
 _ZN85_$LT$object..pe..ImagePrologueDynamicRelocationHeader$u20$as$u20$core..fmt..Debug$GT$3fmt17h32917391622b56e9E@Base 3.2.0
 _ZN85_$LT$std..backtrace_rs..backtrace..libunwind..Frame$u20$as$u20$core..clone..Clone$GT$5clone17h630a9b7e8dd951bbE@Base 3.2.0
 _ZN85_$LT$std..backtrace_rs..print..BacktraceFrameFmt$u20$as$u20$core..ops..drop..Drop$GT$4drop17h3bf2c2cb60a13370E@Base 3.2.0
 _ZN85_$LT$std..collections..hash..map..DefaultHasher$u20$as$u20$core..default..Default$GT$7default17hae0fa3ca73f14590E@Base 3.2.0
 _ZN85_$LT$std..io..stdio..StderrLock$u20$as$u20$std..sys..unix..kernel_copy..CopyWrite$GT$10properties17hdebe0fdcc183384cE@Base 3.2.0
 _ZN85_$LT$std..io..stdio..StdoutLock$u20$as$u20$std..sys..unix..kernel_copy..CopyWrite$GT$10properties17h51596bea166e8c76E@Base 3.2.0
 _ZN85_$LT$std..sys..unix..args..Args$u20$as$u20$core..iter..traits..iterator..Iterator$GT$4next17hc6a6f63fb8b6d1b5E@Base 3.2.0
 _ZN85_$LT$std..sys..unix..args..Args$u20$as$u20$core..iter..traits..iterator..Iterator$GT$9size_hint17h5c423e5e33722850E@Base 3.2.0
 _ZN85_$LT$std..sys..unix..process..process_common..Command$u20$as$u20$core..fmt..Debug$GT$3fmt17h312a13804fd5544cE@Base 3.2.0
 _ZN86_$LT$$LP$std..net..ip..Ipv4Addr$C$u16$RP$$u20$as$u20$std..net..addr..ToSocketAddrs$GT$15to_socket_addrs17hab1de89ff1638c42E@Base 3.2.0
 _ZN86_$LT$$LP$std..net..ip..Ipv6Addr$C$u16$RP$$u20$as$u20$std..net..addr..ToSocketAddrs$GT$15to_socket_addrs17hb9677aff50cad462E@Base 3.2.0
 _ZN86_$LT$$RF$std..net..tcp..TcpStream$u20$as$u20$std..sys..unix..kernel_copy..CopyRead$GT$10properties17hb758320f5dd2970fE@Base 3.2.0
 _ZN86_$LT$core..char..CaseMappingIter$u20$as$u20$core..iter..traits..iterator..Iterator$GT$4next17h2e6fa5c5434c0599E@Base 3.2.0
 _ZN86_$LT$core..char..CaseMappingIter$u20$as$u20$core..iter..traits..iterator..Iterator$GT$9size_hint17h3c6a867b5a35b4f2E@Base 3.2.0
 _ZN86_$LT$core..num..error..TryFromIntError$u20$as$u20$core..convert..From$LT$$u21$$GT$$GT$4from17h0334353f830f8717E@Base 3.2.0
 _ZN86_$LT$object..read..traits..NoDynamicRelocationIterator$u20$as$u20$core..fmt..Debug$GT$3fmt17ha354ad88307c23d3E@Base 3.2.0
 _ZN86_$LT$std..env..ArgsOs$u20$as$u20$core..iter..traits..exact_size..ExactSizeIterator$GT$3len17h5335d0dd2cdfefa4E@Base 3.2.0
 _ZN86_$LT$std..env..ArgsOs$u20$as$u20$core..iter..traits..exact_size..ExactSizeIterator$GT$8is_empty17ha4d2fc591f8c1be7E@Base 3.2.0
 _ZN86_$LT$std..net..tcp..IntoIncoming$u20$as$u20$core..iter..traits..iterator..Iterator$GT$4next17h48fdae89e143645dE@Base 3.2.0
 _ZN86_$LT$std..sys..unix..fs..ReadDir$u20$as$u20$core..iter..traits..iterator..Iterator$GT$4next17h1975226f574a1d6eE@Base 3.2.0
 _ZN86_$LT$std..sys..unix..process..process_common..ExitCode$u20$as$u20$core..fmt..Debug$GT$3fmt17h9ab26e8dd21a1207E@Base 3.2.0
 _ZN87_$LT$$RF$mut$u20$$u5b$u8$u5d$$u20$as$u20$std..ffi..c_str..CString..new..SpecNewImpl$GT$13spec_new_impl17h074199699a1ed80bE@Base 3.2.0
 _ZN87_$LT$$RF$std..net..tcp..TcpStream$u20$as$u20$std..sys..unix..kernel_copy..CopyWrite$GT$10properties17h4dc23281ecc4feb0E@Base 3.2.0
 _ZN87_$LT$std..process..ExitStatusError$u20$as$u20$std..os..unix..process..ExitStatusExt$GT$11core_dumped17hb5f1ea559f617920E@Base 3.2.0
 _ZN87_$LT$std..process..ExitStatusError$u20$as$u20$std..os..unix..process..ExitStatusExt$GT$14stopped_signal17hf29f488580674276E@Base 3.2.0
 _ZN87_$LT$std..process..ExitStatusError$u20$as$u20$std..os..unix..process..ExitStatusExt$GT$6signal17h87cea448348d3b5cE@Base 3.2.0
 _ZN87_$LT$std..process..ExitStatusError$u20$as$u20$std..os..unix..process..ExitStatusExt$GT$8from_raw17hc1d6ea577b47fee2E@Base 3.2.0
 _ZN87_$LT$std..process..ExitStatusError$u20$as$u20$std..os..unix..process..ExitStatusExt$GT$8into_raw17h75e51a89f21a4864E@Base 3.2.0
 _ZN87_$LT$std..process..ExitStatusError$u20$as$u20$std..os..unix..process..ExitStatusExt$GT$9continued17hfdee8a716dbfea52E@Base 3.2.0
 _ZN87_$LT$std..sys..unix..process..process_inner..ExitStatus$u20$as$u20$core..fmt..Debug$GT$3fmt17hf11296570d83c260E@Base 3.2.0
 _ZN88_$LT$std..env..Args$u20$as$u20$core..iter..traits..double_ended..DoubleEndedIterator$GT$9next_back17h76c7db4981e7dde3E@Base 3.2.0
 _ZN88_$LT$std..time..Instant$u20$as$u20$core..ops..arith..Add$LT$core..time..Duration$GT$$GT$3add17h87de50a6094799a3E@Base 3.2.0
 _ZN88_$LT$std..time..Instant$u20$as$u20$core..ops..arith..Sub$LT$core..time..Duration$GT$$GT$3sub17h4dbace2917eb4abdE@Base 3.2.0
 _ZN89_$LT$std..backtrace_rs..symbolize..gimli..mmap..Mmap$u20$as$u20$core..ops..drop..Drop$GT$4drop17h3e99c83f83e9a963E@Base 3.2.0
 _ZN89_$LT$std..sys..unix..os..SplitPaths$u20$as$u20$core..iter..traits..iterator..Iterator$GT$4next17h5b72233271b66918E@Base 3.2.0
 _ZN89_$LT$std..sys..unix..os..SplitPaths$u20$as$u20$core..iter..traits..iterator..Iterator$GT$9size_hint17h25e8b6cfbd7ca0f2E@Base 3.2.0
 _ZN89_$LT$std..sys..unix..process..process_common..CommandArgs$u20$as$u20$core..fmt..Debug$GT$3fmt17hc6216907ff30e32cE@Base 3.2.0
 _ZN89_$LT$std..sys..unix..process..process_inner..ExitStatus$u20$as$u20$core..fmt..Display$GT$3fmt17h3944e87a444b5fbaE@Base 3.2.0
 _ZN90_$LT$$RF$$u5b$std..net..addr..SocketAddr$u5d$$u20$as$u20$std..net..addr..ToSocketAddrs$GT$15to_socket_addrs17h81dc503a7ad91b3cE@Base 3.2.0
 _ZN90_$LT$std..env..ArgsOs$u20$as$u20$core..iter..traits..double_ended..DoubleEndedIterator$GT$9next_back17h8010d3df28ca6667E@Base 3.2.0
 _ZN90_$LT$std..fs..File$u20$as$u20$std..sys_common..AsInner$LT$std..sys..unix..fs..File$GT$$GT$8as_inner17h702a60ac92be44e2E@Base 3.2.0
 _ZN90_$LT$std..panicking..begin_panic_handler..PanicPayload$u20$as$u20$core..panic..BoxMeUp$GT$3get17h4205ecffd2594622E@Base 3.2.0
 _ZN90_$LT$std..panicking..begin_panic_handler..PanicPayload$u20$as$u20$core..panic..BoxMeUp$GT$8take_box17hcab8e0728c4f6f90E@Base 3.2.0
 _ZN90_$LT$std..sys_common..net..LookupHost$u20$as$u20$core..convert..TryFrom$LT$$RF$str$GT$$GT$8try_from17h38fec37d65e139e2E@Base 3.2.0
 _ZN91_$LT$addr2line..LocationRangeUnitIter$u20$as$u20$core..iter..traits..iterator..Iterator$GT$4next17h20293827f7f9511eE@Base 3.2.0
 _ZN91_$LT$std..backtrace_rs..symbolize..gimli..mmap..Mmap$u20$as$u20$core..ops..deref..Deref$GT$5deref17h5a1036daf40bec43E@Base 3.2.0
 _ZN91_$LT$std..panicking..rust_panic_without_hook..RewrapBox$u20$as$u20$core..panic..BoxMeUp$GT$3get17hb881b5636e6158f0E@Base 3.2.0
 _ZN91_$LT$std..panicking..rust_panic_without_hook..RewrapBox$u20$as$u20$core..panic..BoxMeUp$GT$8take_box17he7401ae3d7e27e01E@Base 3.2.0
 _ZN91_$LT$std..process..Stdio$u20$as$u20$core..convert..From$LT$std..process..ChildStdin$GT$$GT$4from17h3012f5a28e3ae298E@Base 3.2.0
 _ZN91_$LT$std..sys_common..backtrace.._print..DisplayBacktrace$u20$as$u20$core..fmt..Display$GT$3fmt17h66dbab7f8ad3ae11E@Base 3.2.0
 _ZN91_$LT$std..sys_common..net..LookupHost$u20$as$u20$core..iter..traits..iterator..Iterator$GT$4next17h79aa3bd515412469E@Base 3.2.0
 _ZN91_$LT$std..time..SystemTime$u20$as$u20$core..ops..arith..Add$LT$core..time..Duration$GT$$GT$3add17ha3a1d6e0572e2f6dE@Base 3.2.0
 _ZN91_$LT$std..time..SystemTime$u20$as$u20$core..ops..arith..Sub$LT$core..time..Duration$GT$$GT$3sub17h31ee437f1b6fff54E@Base 3.2.0
 _ZN92_$LT$std..fs..File$u20$as$u20$std..sys_common..FromInner$LT$std..sys..unix..fs..File$GT$$GT$10from_inner17h75e57ace6fd94606E@Base 3.2.0
 _ZN92_$LT$std..fs..File$u20$as$u20$std..sys_common..IntoInner$LT$std..sys..unix..fs..File$GT$$GT$10into_inner17h96d578a45a8226f8E@Base 3.2.0
 _ZN92_$LT$std..process..Stdio$u20$as$u20$core..convert..From$LT$std..process..ChildStderr$GT$$GT$4from17h3b50d5718523cfd0E@Base 3.2.0
 _ZN92_$LT$std..process..Stdio$u20$as$u20$core..convert..From$LT$std..process..ChildStdout$GT$$GT$4from17h5fbce822b3aaa459E@Base 3.2.0
 _ZN92_$LT$std..sys..unix..os_str..Buf$u20$as$u20$std..sys_common..AsInner$LT$$u5b$u8$u5d$$GT$$GT$8as_inner17hdd82244ec2963965E@Base 3.2.0
 _ZN92_$LT$std..sys..unix..process..process_inner..ExitStatusError$u20$as$u20$core..fmt..Debug$GT$3fmt17h3e344327e7c3c1a3E@Base 3.2.0
 _ZN92_$LT$std..sys_common..wtf8..Wtf8$u20$as$u20$std..sys_common..AsInner$LT$$u5b$u8$u5d$$GT$$GT$8as_inner17h2ac2e0325f922cb6E@Base 3.2.0
 _ZN93_$LT$alloc..collections..btree..mem..replace..PanicGuard$u20$as$u20$core..ops..drop..Drop$GT$4drop17he0f6eabc513751d2E@Base 3.2.0
 _ZN93_$LT$std..panicking..begin_panic_handler..StrPanicPayload$u20$as$u20$core..panic..BoxMeUp$GT$3get17h8649244e1563a3b7E@Base 3.2.0
 _ZN93_$LT$std..panicking..begin_panic_handler..StrPanicPayload$u20$as$u20$core..panic..BoxMeUp$GT$8take_box17h21a55158a4cee378E@Base 3.2.0
 _ZN93_$LT$std..sys..unix..fs..FilePermissions$u20$as$u20$std..sys_common..FromInner$LT$u32$GT$$GT$10from_inner17h98635c517c0f957cE@Base 3.2.0
 _ZN94_$LT$std..time..Instant$u20$as$u20$core..ops..arith..AddAssign$LT$core..time..Duration$GT$$GT$10add_assign17h57019357a08146ffE@Base 3.2.0
 _ZN94_$LT$std..time..Instant$u20$as$u20$core..ops..arith..SubAssign$LT$core..time..Duration$GT$$GT$10sub_assign17h52239ce5ba548302E@Base 3.2.0
 _ZN95_$LT$core..char..EscapeDefault$u20$as$u20$core..iter..traits..exact_size..ExactSizeIterator$GT$3len17h5d5f7dc6940c786bE@Base 3.2.0
 _ZN95_$LT$std..path..Components$u20$as$u20$core..iter..traits..double_ended..DoubleEndedIterator$GT$9next_back17h3fa5e4eafc8e3f9dE@Base 3.2.0
 _ZN95_$LT$std..process..CommandArgs$u20$as$u20$core..iter..traits..exact_size..ExactSizeIterator$GT$3len17h725c3e817153c6acE@Base 3.2.0
 _ZN95_$LT$std..process..CommandArgs$u20$as$u20$core..iter..traits..exact_size..ExactSizeIterator$GT$8is_empty17h3e2c26b56935712fE@Base 3.2.0
 _ZN96_$LT$core..str..lossy..Utf8LossyChunksIter$u20$as$u20$core..iter..traits..iterator..Iterator$GT$4next17heb30b9d70d1ce172E@Base 3.2.0
 _ZN96_$LT$std..os..unix..net..stream..UnixStream$u20$as$u20$std..sys..unix..kernel_copy..CopyRead$GT$10properties17h8273fae52fa89a1fE@Base 3.2.0
 _ZN96_$LT$std..sys..unix..args..Args$u20$as$u20$core..iter..traits..exact_size..ExactSizeIterator$GT$3len17h0ee4401a1bff1b95E@Base 3.2.0
 _ZN96_$LT$std..sys..unix..locks..pthread_mutex..PthreadMutexAttr$u20$as$u20$core..ops..drop..Drop$GT$4drop17hbce6beb64d04452aE@Base 3.2.0
 _ZN96_$LT$std..sys_common..process..CommandEnvs$u20$as$u20$core..iter..traits..iterator..Iterator$GT$4next17h8af1ede62d2a0768E@Base 3.2.0
 _ZN96_$LT$std..sys_common..process..CommandEnvs$u20$as$u20$core..iter..traits..iterator..Iterator$GT$9size_hint17hc965bd0d53193b82E@Base 3.2.0
 _ZN97_$LT$alloc..string..String$u20$as$u20$core..convert..From$LT$alloc..boxed..Box$LT$str$GT$$GT$$GT$4from17h9a6b4863efd37216E@Base 3.2.0
 _ZN97_$LT$core..char..ToLowercase$u20$as$u20$core..iter..traits..double_ended..DoubleEndedIterator$GT$9next_back17h981ffb381098fc9fE@Base 3.2.0
 _ZN97_$LT$core..char..ToUppercase$u20$as$u20$core..iter..traits..double_ended..DoubleEndedIterator$GT$9next_back17h547aa957d55401cbE@Base 3.2.0
 _ZN97_$LT$std..ffi..c_str..CString$u20$as$u20$core..convert..From$LT$$RF$std..ffi..c_str..CStr$GT$$GT$4from17h82ec8b2499beef95E@Base 3.2.0
 _ZN97_$LT$std..os..unix..net..listener..Incoming$u20$as$u20$core..iter..traits..iterator..Iterator$GT$4next17h5d7ae2aa3a809a17E@Base 3.2.0
 _ZN97_$LT$std..os..unix..net..listener..Incoming$u20$as$u20$core..iter..traits..iterator..Iterator$GT$9size_hint17h12d3b853fd06eedeE@Base 3.2.0
 _ZN97_$LT$std..os..unix..net..stream..UnixStream$u20$as$u20$std..sys..unix..kernel_copy..CopyWrite$GT$10properties17hdc22fb290fa291a6E@Base 3.2.0
 _ZN97_$LT$std..time..SystemTime$u20$as$u20$core..ops..arith..AddAssign$LT$core..time..Duration$GT$$GT$10add_assign17h33074145bc47a1e9E@Base 3.2.0
 _ZN97_$LT$std..time..SystemTime$u20$as$u20$core..ops..arith..SubAssign$LT$core..time..Duration$GT$$GT$10sub_assign17h042dcfea15b67c7eE@Base 3.2.0
 _ZN98_$LT$alloc..string..String$u20$as$u20$core..convert..From$LT$alloc..borrow..Cow$LT$str$GT$$GT$$GT$4from17hd30de40b6b867a42E@Base 3.2.0
 _ZN98_$LT$std..fs..DirEntry$u20$as$u20$std..sys_common..AsInner$LT$std..sys..unix..fs..DirEntry$GT$$GT$8as_inner17hc8f6ffa5c2f1eba9E@Base 3.2.0
 _ZN98_$LT$std..fs..FileType$u20$as$u20$std..sys_common..AsInner$LT$std..sys..unix..fs..FileType$GT$$GT$8as_inner17he92ce8a25782c50aE@Base 3.2.0
 _ZN98_$LT$std..fs..Metadata$u20$as$u20$std..sys_common..AsInner$LT$std..sys..unix..fs..FileAttr$GT$$GT$8as_inner17h23c71b56aaa2097fE@Base 3.2.0
 _ZN98_$LT$std..os..unix..net..ancillary..Messages$u20$as$u20$core..iter..traits..iterator..Iterator$GT$4next17h0acf8eedd72429e0E@Base 3.2.0
 _ZN99_$LT$std..os..unix..net..ancillary..ScmRights$u20$as$u20$core..iter..traits..iterator..Iterator$GT$4next17h2cd744deb3a5c330E@Base 3.2.0
 _ZN99_$LT$std..sys..unix..process..process_common..ExitCode$u20$as$u20$core..convert..From$LT$u8$GT$$GT$4from17hdae20437e1e26858E@Base 3.2.0
 _ZN9addr2line13demangle_auto17h929ce5ad21bcef74E@Base 3.2.0
 _ZN9addr2line8demangle17hada7e851f9566d1cE@Base 3.2.0
 _ZN9addr2line9path_push17h70ce24eaef8bfeeeE@Base 3.2.0
 _ZN9hashbrown3raw11Fallibility17capacity_overflow17hceede0914a0865e8E@Base 3.2.0
 _ZN9hashbrown3raw11Fallibility9alloc_err17h740688008efb963cE@Base 3.2.0
 __rdl_oom@Base 3.2.0
 __rust_alloc@Base 3.2.0
 __rust_alloc_error_handler@Base 3.2.0
 __rust_alloc_error_handler_should_panic@Base 3.2.0
 __rust_alloc_zeroed@Base 3.2.0
 __rust_dealloc@Base 3.2.0
 __rust_drop_panic@Base 3.2.0
 __rust_foreign_exception@Base 3.2.0
 __rust_panic_cleanup@Base 3.2.0
 __rust_realloc@Base 3.2.0
 __rust_start_panic@Base 3.2.0
 (optional)coroutine_transfer@Base 3.2.0
 dln_find_exe_r@Base 3.2.0
 dln_find_file_r@Base 3.2.0
 dln_load@Base 3.2.0
 mjit_call_p@Base 3.2.0
 mjit_opts@Base 3.2.0
 onig_add_end_call@Base 3.2.0
 onig_bbuf_init@Base 3.2.0
 onig_check_linear_time@Base 3.2.0
 onig_compile@Base 3.2.0
 onig_compile_ruby@Base 3.2.0
 onig_copy_encoding@Base 3.2.0
 onig_copy_syntax@Base 3.2.0
 onig_end@Base 3.2.0
 onig_error_code_to_format@Base 3.2.0
 onig_error_code_to_str@Base 3.2.0
 onig_foreach_name@Base 3.2.0
 onig_free@Base 3.2.0
 onig_free_body@Base 3.2.0
 onig_get_case_fold_flag@Base 3.2.0
 onig_get_default_case_fold_flag@Base 3.2.0
 onig_get_encoding@Base 3.2.0
 onig_get_match_stack_limit_size@Base 3.2.0
 onig_get_options@Base 3.2.0
 onig_get_parse_depth_limit@Base 3.2.0
 onig_get_syntax@Base 3.2.0
 onig_get_syntax_behavior@Base 3.2.0
 onig_get_syntax_op2@Base 3.2.0
 onig_get_syntax_op@Base 3.2.0
 onig_get_syntax_options@Base 3.2.0
 onig_init@Base 3.2.0
 onig_initialize@Base 3.2.0
 onig_is_code_in_cc@Base 3.2.0
 onig_is_code_in_cc_len@Base 3.2.0
 onig_is_in_code_range@Base 3.2.0
 onig_match@Base 3.2.0
 onig_memsize@Base 3.2.0
 onig_name_to_backref_number@Base 3.2.0
 onig_name_to_group_numbers@Base 3.2.0
 onig_names_free@Base 3.2.0
 onig_new@Base 3.2.0
 onig_new_without_alloc@Base 3.2.0
 onig_node_free@Base 3.2.0
 onig_node_list_add@Base 3.2.0
 onig_node_new_alt@Base 3.2.0
 onig_node_new_anchor@Base 3.2.0
 onig_node_new_enclose@Base 3.2.0
 onig_node_new_list@Base 3.2.0
 onig_node_new_str@Base 3.2.0
 onig_node_str_cat@Base 3.2.0
 onig_node_str_clear@Base 3.2.0
 onig_node_str_set@Base 3.2.0
 onig_noname_group_capture_is_active@Base 3.2.0
 onig_null_warn@Base 3.2.0
 onig_number_of_capture_histories@Base 3.2.0
 onig_number_of_captures@Base 3.2.0
 onig_number_of_names@Base 3.2.0
 onig_parse_make_tree@Base 3.2.0
 onig_reduce_nested_quantifier@Base 3.2.0
 onig_reg_init@Base 3.2.0
 onig_region_clear@Base 3.2.0
 onig_region_copy@Base 3.2.0
 onig_region_free@Base 3.2.0
 onig_region_init@Base 3.2.0
 onig_region_memsize@Base 3.2.0
 onig_region_new@Base 3.2.0
 onig_region_resize@Base 3.2.0
 onig_region_set@Base 3.2.0
 onig_renumber_name_table@Base 3.2.0
 onig_scan@Base 3.2.0
 onig_scan_env_set_error_string@Base 3.2.0
 onig_scan_unsigned_number@Base 3.2.0
 onig_search@Base 3.2.0
 onig_search_gpos@Base 3.2.0
 onig_set_default_case_fold_flag@Base 3.2.0
 onig_set_default_syntax@Base 3.2.0
 onig_set_match_stack_limit_size@Base 3.2.0
 onig_set_meta_char@Base 3.2.0
 onig_set_parse_depth_limit@Base 3.2.0
 onig_set_syntax_behavior@Base 3.2.0
 onig_set_syntax_op2@Base 3.2.0
 onig_set_syntax_op@Base 3.2.0
 onig_set_syntax_options@Base 3.2.0
 onig_set_verb_warn_func@Base 3.2.0
 onig_set_warn_func@Base 3.2.0
 onig_st_init_strend_table_with_size@Base 3.2.0
 onig_st_insert_strend@Base 3.2.0
 onig_st_lookup_strend@Base 3.2.0
 onig_strcpy@Base 3.2.0
 onig_vsnprintf_with_pattern@Base 3.2.0
 onigenc_always_false_is_allowed_reverse_match@Base 3.2.0
 onigenc_always_true_is_allowed_reverse_match@Base 3.2.0
 onigenc_apply_all_case_fold_with_map@Base 3.2.0
 onigenc_ascii_apply_all_case_fold@Base 3.2.0
 onigenc_ascii_get_case_fold_codes_by_str@Base 3.2.0
 onigenc_ascii_is_code_ctype@Base 3.2.0
 onigenc_ascii_mbc_case_fold@Base 3.2.0
 onigenc_ascii_only_case_map@Base 3.2.0
 onigenc_get_case_fold_codes_by_str_with_map@Base 3.2.0
 onigenc_get_default_encoding@Base 3.2.0
 onigenc_get_left_adjust_char_head@Base 3.2.0
 onigenc_get_prev_char_head@Base 3.2.0
 onigenc_get_right_adjust_char_head@Base 3.2.0
 onigenc_get_right_adjust_char_head_with_prev@Base 3.2.0
 onigenc_init@Base 3.2.0
 onigenc_is_mbc_newline_0x0a@Base 3.2.0
 onigenc_mb2_code_to_mbc@Base 3.2.0
 onigenc_mb2_code_to_mbclen@Base 3.2.0
 onigenc_mb2_is_code_ctype@Base 3.2.0
 onigenc_mb4_code_to_mbc@Base 3.2.0
 onigenc_mb4_code_to_mbclen@Base 3.2.0
 onigenc_mb4_is_code_ctype@Base 3.2.0
 onigenc_mbclen@Base 3.2.0
 onigenc_mbn_mbc_case_fold@Base 3.2.0
 onigenc_mbn_mbc_to_code@Base 3.2.0
 onigenc_minimum_property_name_to_ctype@Base 3.2.0
 onigenc_not_support_get_ctype_code_range@Base 3.2.0
 onigenc_set_default_encoding@Base 3.2.0
 onigenc_single_byte_ascii_only_case_map@Base 3.2.0
 onigenc_single_byte_code_to_mbc@Base 3.2.0
 onigenc_single_byte_code_to_mbclen@Base 3.2.0
 onigenc_single_byte_left_adjust_char_head@Base 3.2.0
 onigenc_single_byte_mbc_enc_len@Base 3.2.0
 onigenc_single_byte_mbc_to_code@Base 3.2.0
 onigenc_step@Base 3.2.0
 onigenc_step_back@Base 3.2.0
 onigenc_str_bytelen_null@Base 3.2.0
 onigenc_strlen@Base 3.2.0
 onigenc_strlen_null@Base 3.2.0
 onigenc_unicode_apply_all_case_fold@Base 3.2.0
 onigenc_unicode_case_map@Base 3.2.0
 onigenc_unicode_ctype_code_range@Base 3.2.0
 onigenc_unicode_get_case_fold_codes_by_str@Base 3.2.0
 onigenc_unicode_is_code_ctype@Base 3.2.0
 onigenc_unicode_mbc_case_fold@Base 3.2.0
 onigenc_unicode_property_name_to_ctype@Base 3.2.0
 onigenc_utf16_32_get_ctype_code_range@Base 3.2.0
 onigenc_with_ascii_strncmp@Base 3.2.0
 onigenc_with_ascii_strnicmp@Base 3.2.0
 rb_Array@Base 3.2.0
 rb_Complex@Base 3.2.0
 rb_Float@Base 3.2.0
 rb_Hash@Base 3.2.0
 rb_Integer@Base 3.2.0
 rb_Rational@Base 3.2.0
 rb_String@Base 3.2.0
 rb_absint_numwords@Base 3.2.0
 rb_absint_singlebit_p@Base 3.2.0
 rb_absint_size@Base 3.2.0
 rb_add_event_hook2@Base 3.2.0
 rb_add_event_hook@Base 3.2.0
 rb_add_method_iseq@Base 3.2.0
 rb_alias@Base 3.2.0
 rb_alias_variable@Base 3.2.0
 rb_alloc_tmp_buffer@Base 3.2.0
 rb_alloc_tmp_buffer_with_count@Base 3.2.0
 rb_any_to_s@Base 3.2.0
 rb_apply@Base 3.2.0
 rb_argv0@Base 3.2.0
 rb_arith_seq_new@Base 3.2.0
 rb_arithmetic_sequence_beg_len_step@Base 3.2.0~preview2
 rb_arithmetic_sequence_extract@Base 3.2.0
 rb_ary_aref1@Base 3.2.0
 rb_ary_aref@Base 3.2.0
 rb_ary_assoc@Base 3.2.0
 rb_ary_behead@Base 3.2.0
 rb_ary_cat@Base 3.2.0
 rb_ary_clear@Base 3.2.0
 rb_ary_cmp@Base 3.2.0
 rb_ary_concat@Base 3.2.0
 rb_ary_delete@Base 3.2.0
 rb_ary_delete_at@Base 3.2.0
 rb_ary_detransient@Base 3.2.0
 rb_ary_dup@Base 3.2.0
 rb_ary_each@Base 3.2.0
 rb_ary_entry@Base 3.2.0
 rb_ary_free@Base 3.2.0
 rb_ary_freeze@Base 3.2.0
 rb_ary_hidden_new@Base 3.2.0
 rb_ary_includes@Base 3.2.0
 rb_ary_join@Base 3.2.0
 rb_ary_memsize@Base 3.2.0
 rb_ary_modify@Base 3.2.0
 rb_ary_new@Base 3.2.0
 rb_ary_new_capa@Base 3.2.0
 rb_ary_new_from_args@Base 3.2.0
 rb_ary_new_from_values@Base 3.2.0
 rb_ary_plus@Base 3.2.0
 rb_ary_pop@Base 3.2.0
 rb_ary_ptr_use_end@Base 3.2.0
 rb_ary_ptr_use_start@Base 3.2.0
 rb_ary_push@Base 3.2.0
 rb_ary_rassoc@Base 3.2.0
 rb_ary_replace@Base 3.2.0
 rb_ary_resize@Base 3.2.0
 rb_ary_resurrect@Base 3.2.0
 rb_ary_reverse@Base 3.2.0
 rb_ary_rotate@Base 3.2.0
 rb_ary_shared_with_p@Base 3.2.0
 rb_ary_shift@Base 3.2.0
 rb_ary_sort@Base 3.2.0
 rb_ary_sort_bang@Base 3.2.0
 rb_ary_store@Base 3.2.0
 rb_ary_subseq@Base 3.2.0
 rb_ary_tmp_new_from_values@Base 3.2.0
 rb_ary_to_ary@Base 3.2.0
 rb_ary_to_s@Base 3.2.0
 rb_ary_unshift@Base 3.2.0
 rb_ascii8bit_encindex@Base 3.2.0
 rb_ascii8bit_encoding@Base 3.2.0
 rb_assert_failure@Base 3.2.0
 rb_assoc_new@Base 3.2.0
 rb_ast_add_mark_object@Base 3.2.0
 rb_ast_delete_node@Base 3.2.0
 rb_ast_dispose@Base 3.2.0
 rb_ast_free@Base 3.2.0
 rb_ast_mark@Base 3.2.0
 rb_ast_memsize@Base 3.2.0
 rb_ast_new@Base 3.2.0
 rb_ast_new_local_table@Base 3.2.0
 rb_ast_newnode@Base 3.2.0
 rb_ast_node_type_change@Base 3.2.0
 rb_ast_resize_latest_local_table@Base 3.2.0
 rb_ast_set_tokens@Base 3.2.0
 rb_ast_tokens@Base 3.2.0
 rb_ast_update_references@Base 3.2.0
 rb_attr@Base 3.2.0
 rb_attr_get@Base 3.2.0
 rb_autoload@Base 3.2.0
 rb_autoload_load@Base 3.2.0
 rb_autoload_p@Base 3.2.0
 rb_autoloading_value@Base 3.2.0
 rb_backref_get@Base 3.2.0
 rb_backref_set@Base 3.2.0
 rb_backtrace@Base 3.2.0
 rb_backtrace_use_iseq_first_lineno_for_last_location@Base 3.2.0
 rb_big2dbl@Base 3.2.0
 rb_big2ll@Base 3.2.0
 rb_big2long@Base 3.2.0
 rb_big2str@Base 3.2.0
 rb_big2str_generic@Base 3.2.0
 rb_big2str_gmp@Base 3.2.0
 rb_big2str_poweroftwo@Base 3.2.0
 rb_big2ull@Base 3.2.0
 rb_big2ulong@Base 3.2.0
 rb_big_2comp@Base 3.2.0
 rb_big_and@Base 3.2.0
 rb_big_clone@Base 3.2.0
 rb_big_cmp@Base 3.2.0
 rb_big_div@Base 3.2.0
 rb_big_divmod@Base 3.2.0
 rb_big_divrem_gmp@Base 3.2.0
 rb_big_divrem_normal@Base 3.2.0
 rb_big_eq@Base 3.2.0
 rb_big_eql@Base 3.2.0
 rb_big_idiv@Base 3.2.0
 rb_big_lshift@Base 3.2.0
 rb_big_minus@Base 3.2.0
 rb_big_modulo@Base 3.2.0
 rb_big_mul@Base 3.2.0
 rb_big_mul_balance@Base 3.2.0
 rb_big_mul_gmp@Base 3.2.0
 rb_big_mul_karatsuba@Base 3.2.0
 rb_big_mul_normal@Base 3.2.0
 rb_big_mul_toom3@Base 3.2.0
 rb_big_new@Base 3.2.0
 rb_big_norm@Base 3.2.0
 rb_big_or@Base 3.2.0
 rb_big_pack@Base 3.2.0
 rb_big_plus@Base 3.2.0
 rb_big_pow@Base 3.2.0
 rb_big_resize@Base 3.2.0
 rb_big_rshift@Base 3.2.0
 rb_big_sign@Base 3.2.0
 rb_big_sq_fast@Base 3.2.0
 rb_big_unpack@Base 3.2.0
 rb_big_xor@Base 3.2.0
 rb_bigzero_p@Base 3.2.0
 rb_binding_new@Base 3.2.0
 rb_block_call@Base 3.2.0
 rb_block_call_kw@Base 3.2.0
 rb_block_given_p@Base 3.2.0
 rb_block_lambda@Base 3.2.0
 rb_block_param_proxy@Base 3.2.0
 rb_block_proc@Base 3.2.0
 rb_bug@Base 3.2.0
 rb_bug_errno@Base 3.2.0
 rb_bug_reporter_add@Base 3.2.0
 rb_cArray@Base 3.2.0
 rb_cBasicObject@Base 3.2.0
 rb_cBinding@Base 3.2.0
 rb_cClass@Base 3.2.0
 rb_cComplex@Base 3.2.0
 rb_cDir@Base 3.2.0
 rb_cEncoding@Base 3.2.0
 rb_cEnumerator@Base 3.2.0
 rb_cFalseClass@Base 3.2.0
 rb_cFile@Base 3.2.0
 rb_cFloat@Base 3.2.0
 rb_cHash@Base 3.2.0
 rb_cIO@Base 3.2.0
 rb_cIOBuffer@Base 3.2.0
 rb_cISeq@Base 3.2.0
 rb_cInteger@Base 3.2.0
 rb_cMatch@Base 3.2.0
 rb_cMethod@Base 3.2.0
 rb_cModule@Base 3.2.0
 rb_cNameErrorMesg@Base 3.2.0
 rb_cNilClass@Base 3.2.0
 rb_cNumeric@Base 3.2.0
 rb_cObject@Base 3.2.0
 rb_cProc@Base 3.2.0
 rb_cRactor@Base 3.2.0~preview2
 rb_cRandom@Base 3.2.0
 rb_cRange@Base 3.2.0
 rb_cRational@Base 3.2.0
 rb_cRefinement@Base 3.2.0
 rb_cRegexp@Base 3.2.0
 rb_cRubyVM@Base 3.2.0
 rb_cStat@Base 3.2.0
 rb_cString@Base 3.2.0
 rb_cStruct@Base 3.2.0
 rb_cSymbol@Base 3.2.0
 rb_cThread@Base 3.2.0
 rb_cTime@Base 3.2.0
 rb_cTrueClass@Base 3.2.0
 rb_cUnboundMethod@Base 3.2.0
 rb_call_super@Base 3.2.0
 rb_call_super_kw@Base 3.2.0
 rb_callable_method_entry@Base 3.2.0
 rb_callable_method_entry_with_refinements@Base 3.2.0
 rb_callable_method_entry_without_refinements@Base 3.2.0
 rb_catch@Base 3.2.0
 rb_catch_obj@Base 3.2.0
 rb_category_compile_warn@Base 3.2.0~rc1
 rb_category_warn@Base 3.2.0~preview2
 rb_category_warning@Base 3.2.0~preview2
 rb_char_to_option_kcode@Base 3.2.0
 rb_check_array_type@Base 3.2.0
 rb_check_convert_type@Base 3.2.0
 rb_check_convert_type_with_id@Base 3.2.0
 rb_check_copyable@Base 3.2.0
 rb_check_frozen@Base 3.2.0
 rb_check_funcall@Base 3.2.0
 rb_check_funcall_kw@Base 3.2.0
 rb_check_hash_type@Base 3.2.0
 rb_check_id@Base 3.2.0
 rb_check_id_cstr@Base 3.2.0
 rb_check_inheritable@Base 3.2.0
 rb_check_string_type@Base 3.2.0
 rb_check_symbol@Base 3.2.0
 rb_check_symbol_cstr@Base 3.2.0
 rb_check_to_array@Base 3.2.0
 rb_check_to_float@Base 3.2.0
 rb_check_to_int@Base 3.2.0
 rb_check_to_integer@Base 3.2.0
 rb_check_type@Base 3.2.0
 rb_check_typeddata@Base 3.2.0
 rb_class2name@Base 3.2.0
 rb_class_allocate_instance@Base 3.2.0
 rb_class_attached_object@Base 3.2.0
 rb_class_get_superclass@Base 3.2.0
 rb_class_inherited@Base 3.2.0
 rb_class_inherited_p@Base 3.2.0
 rb_class_instance_methods@Base 3.2.0
 rb_class_ivar_set@Base 3.2.0
 rb_class_name@Base 3.2.0
 rb_class_new@Base 3.2.0
 rb_class_new_instance@Base 3.2.0
 rb_class_new_instance_kw@Base 3.2.0
 rb_class_new_instance_pass_kw@Base 3.2.0
 rb_class_path@Base 3.2.0
 rb_class_path_cached@Base 3.2.0
 rb_class_private_instance_methods@Base 3.2.0
 rb_class_protected_instance_methods@Base 3.2.0
 rb_class_public_instance_methods@Base 3.2.0
 rb_class_real@Base 3.2.0
 rb_class_subclasses@Base 3.2.0
 rb_class_superclass@Base 3.2.0
 rb_clear_constant_cache_for_id@Base 3.2.0
 rb_clear_coverages@Base 3.2.0
 rb_cloexec_dup2@Base 3.2.0
 rb_cloexec_dup@Base 3.2.0
 rb_cloexec_fcntl_dupfd@Base 3.2.0
 rb_cloexec_open@Base 3.2.0
 rb_cloexec_pipe@Base 3.2.0
 rb_close_before_exec@Base 3.2.0
 rb_cmperr@Base 3.2.0
 rb_cmpint@Base 3.2.0
 rb_compile_warn@Base 3.2.0
 rb_compile_warning@Base 3.2.0
 rb_complex_abs@Base 3.2.0
 rb_complex_arg@Base 3.2.0
 rb_complex_conjugate@Base 3.2.0
 rb_complex_div@Base 3.2.0
 rb_complex_imag@Base 3.2.0
 rb_complex_minus@Base 3.2.0
 rb_complex_mul@Base 3.2.0
 rb_complex_new@Base 3.2.0
 rb_complex_new_polar@Base 3.2.0
 rb_complex_plus@Base 3.2.0
 rb_complex_polar@Base 3.2.0
 rb_complex_pow@Base 3.2.0
 rb_complex_raw@Base 3.2.0
 rb_complex_real@Base 3.2.0
 rb_complex_uminus@Base 3.2.0
 rb_const_defined@Base 3.2.0
 rb_const_defined_at@Base 3.2.0
 rb_const_defined_from@Base 3.2.0
 rb_const_get@Base 3.2.0
 rb_const_get_at@Base 3.2.0
 rb_const_get_from@Base 3.2.0
 rb_const_list@Base 3.2.0
 rb_const_lookup@Base 3.2.0
 rb_const_missing@Base 3.2.0
 rb_const_remove@Base 3.2.0
 rb_const_set@Base 3.2.0
 rb_const_source_location_at@Base 3.2.0
 rb_const_warn_if_deprecated@Base 3.2.0
 rb_convert_type@Base 3.2.0
 rb_convert_type_with_id@Base 3.2.0
 rb_copy_generic_ivar@Base 3.2.0
 rb_cstr2inum@Base 3.2.0
 rb_cstr_to_dbl@Base 3.2.0
 rb_cstr_to_inum@Base 3.2.0
 rb_current_receiver@Base 3.2.0
 rb_cv_get@Base 3.2.0
 rb_cv_set@Base 3.2.0
 rb_cvar_defined@Base 3.2.0
 rb_cvar_find@Base 3.2.0
 rb_cvar_get@Base 3.2.0
 rb_cvar_set@Base 3.2.0
 rb_data_object_wrap@Base 3.2.0
 rb_data_object_zalloc@Base 3.2.0
 rb_data_typed_object_wrap@Base 3.2.0
 rb_data_typed_object_zalloc@Base 3.2.0
 rb_dbl2big@Base 3.2.0
 rb_dbl_cmp@Base 3.2.0
 rb_dbl_complex_new@Base 3.2.0
 rb_debug_inspector_backtrace_locations@Base 3.2.0
 rb_debug_inspector_current_depth@Base 3.2.0
 rb_debug_inspector_frame_binding_get@Base 3.2.0
 rb_debug_inspector_frame_class_get@Base 3.2.0
 rb_debug_inspector_frame_depth@Base 3.2.0
 rb_debug_inspector_frame_iseq_get@Base 3.2.0
 rb_debug_inspector_frame_self_get@Base 3.2.0
 rb_debug_inspector_open@Base 3.2.0
 rb_debug_rstring_null_ptr@Base 3.2.0
 rb_declare_transcoder@Base 3.2.0
 rb_default_external_encoding@Base 3.2.0
 rb_default_internal_encoding@Base 3.2.0
 rb_default_rs@Base 3.2.0
 rb_define_alias@Base 3.2.0
 rb_define_alloc_func@Base 3.2.0
 rb_define_attr@Base 3.2.0
 rb_define_class@Base 3.2.0
 rb_define_class_id@Base 3.2.0
 rb_define_class_id_under@Base 3.2.0
 rb_define_class_under@Base 3.2.0
 rb_define_class_variable@Base 3.2.0
 rb_define_const@Base 3.2.0
 rb_define_dummy_encoding@Base 3.2.0
 rb_define_finalizer@Base 3.2.0
 rb_define_global_const@Base 3.2.0
 rb_define_global_function@Base 3.2.0
 rb_define_hooked_variable@Base 3.2.0
 rb_define_method@Base 3.2.0
 rb_define_method_id@Base 3.2.0
 rb_define_module@Base 3.2.0
 rb_define_module_function@Base 3.2.0
 rb_define_module_id@Base 3.2.0
 rb_define_module_id_under@Base 3.2.0
 rb_define_module_under@Base 3.2.0
 rb_define_private_method@Base 3.2.0
 rb_define_protected_method@Base 3.2.0
 rb_define_readonly_variable@Base 3.2.0
 rb_define_singleton_method@Base 3.2.0
 rb_define_variable@Base 3.2.0
 rb_define_virtual_variable@Base 3.2.0
 rb_deprecate_constant@Base 3.2.0
 rb_detach_process@Base 3.2.0
 rb_dir_getwd@Base 3.2.0
 rb_dtrace_setup@Base 3.2.0
 rb_during_gc@Base 3.2.0
 rb_eArgError@Base 3.2.0
 rb_eEOFError@Base 3.2.0
 rb_eEncCompatError@Base 3.2.0
 rb_eEncodingError@Base 3.2.0
 rb_eException@Base 3.2.0
 rb_eFatal@Base 3.2.0
 rb_eFloatDomainError@Base 3.2.0
 rb_eFrozenError@Base 3.2.0
 rb_eIOError@Base 3.2.0
 rb_eIOTimeoutError@Base 3.2.0
 rb_eIndexError@Base 3.2.0
 rb_eInterrupt@Base 3.2.0
 rb_eKeyError@Base 3.2.0
 rb_eLoadError@Base 3.2.0
 rb_eLocalJumpError@Base 3.2.0
 rb_eMathDomainError@Base 3.2.0
 rb_eNameError@Base 3.2.0
 rb_eNoMatchingPatternError@Base 3.2.0
 rb_eNoMatchingPatternKeyError@Base 3.2.0
 rb_eNoMemError@Base 3.2.0
 rb_eNoMethodError@Base 3.2.0
 rb_eNotImpError@Base 3.2.0
 rb_eRactorIsolationError@Base 3.2.0
 rb_eRactorUnsafeError@Base 3.2.0~preview2
 rb_eRangeError@Base 3.2.0
 rb_eRegexpError@Base 3.2.0
 rb_eRuntimeError@Base 3.2.0
 rb_eScriptError@Base 3.2.0
 rb_eSecurityError@Base 3.2.0
 rb_eSignal@Base 3.2.0
 rb_eStandardError@Base 3.2.0
 rb_eStopIteration@Base 3.2.0
 rb_eSyntaxError@Base 3.2.0
 rb_eSysStackError@Base 3.2.0
 rb_eSystemCallError@Base 3.2.0
 rb_eSystemExit@Base 3.2.0
 rb_eThreadError@Base 3.2.0
 rb_eTypeError@Base 3.2.0
 rb_eZeroDivError@Base 3.2.0
 rb_each@Base 3.2.0
 rb_ec_ary_new_from_values@Base 3.2.0~preview2
 rb_ec_backtrace_object@Base 3.2.0
 rb_ec_obj_respond_to@Base 3.2.0
 rb_ec_stack_check@Base 3.2.0
 rb_ec_str_resurrect@Base 3.2.0~preview2
 rb_ec_wb_protected_newobj_of@Base 3.2.0~preview2
 rb_econv_append@Base 3.2.0
 rb_econv_asciicompat_encoding@Base 3.2.0
 rb_econv_binmode@Base 3.2.0
 rb_econv_check_error@Base 3.2.0
 rb_econv_close@Base 3.2.0
 rb_econv_convert@Base 3.2.0
 rb_econv_decorate_at_first@Base 3.2.0
 rb_econv_decorate_at_last@Base 3.2.0
 rb_econv_encoding_to_insert_output@Base 3.2.0
 rb_econv_has_convpath_p@Base 3.2.0
 rb_econv_insert_output@Base 3.2.0
 rb_econv_make_exception@Base 3.2.0
 rb_econv_open@Base 3.2.0
 rb_econv_open_exc@Base 3.2.0
 rb_econv_open_opts@Base 3.2.0
 rb_econv_prepare_options@Base 3.2.0
 rb_econv_prepare_opts@Base 3.2.0
 rb_econv_putback@Base 3.2.0
 rb_econv_putbackable@Base 3.2.0
 rb_econv_set_replacement@Base 3.2.0
 rb_econv_str_append@Base 3.2.0
 rb_econv_str_convert@Base 3.2.0
 rb_econv_substr_append@Base 3.2.0
 rb_econv_substr_convert@Base 3.2.0
 rb_enc_alias@Base 3.2.0
 rb_enc_ascget@Base 3.2.0
 rb_enc_associate@Base 3.2.0
 rb_enc_associate_index@Base 3.2.0
 rb_enc_capable@Base 3.2.0
 rb_enc_check@Base 3.2.0
 rb_enc_codelen@Base 3.2.0
 rb_enc_codepoint_len@Base 3.2.0
 rb_enc_compatible@Base 3.2.0
 rb_enc_copy@Base 3.2.0
 rb_enc_default_external@Base 3.2.0
 rb_enc_default_internal@Base 3.2.0
 rb_enc_dummy_p@Base 3.2.0
 rb_enc_fast_mbclen@Base 3.2.0
 rb_enc_find@Base 3.2.0
 rb_enc_find_index@Base 3.2.0
 rb_enc_from_encoding@Base 3.2.0
 rb_enc_from_index@Base 3.2.0
 rb_enc_get@Base 3.2.0
 rb_enc_get_index@Base 3.2.0
 rb_enc_interned_str@Base 3.2.0~preview2
 rb_enc_interned_str_cstr@Base 3.2.0~preview2
 rb_enc_mbclen@Base 3.2.0
 rb_enc_nth@Base 3.2.0
 rb_enc_path_end@Base 3.2.0
 rb_enc_path_last_separator@Base 3.2.0
 rb_enc_path_next@Base 3.2.0
 rb_enc_path_skip_prefix@Base 3.2.0
 rb_enc_precise_mbclen@Base 3.2.0
 rb_enc_raise@Base 3.2.0
 rb_enc_reg_new@Base 3.2.0
 rb_enc_register@Base 3.2.0
 rb_enc_replicate@Base 3.2.0
 rb_enc_set_base@Base 3.2.0
 rb_enc_set_default_external@Base 3.2.0
 rb_enc_set_default_internal@Base 3.2.0
 rb_enc_set_dummy@Base 3.2.0
 rb_enc_set_index@Base 3.2.0
 rb_enc_sprintf@Base 3.2.0
 rb_enc_str_asciionly_p@Base 3.2.0
 rb_enc_str_buf_cat@Base 3.2.0
 rb_enc_str_coderange@Base 3.2.0
 rb_enc_str_new@Base 3.2.0
 rb_enc_str_new_cstr@Base 3.2.0
 rb_enc_str_new_static@Base 3.2.0
 rb_enc_strlen@Base 3.2.0
 rb_enc_symname2_p@Base 3.2.0
 rb_enc_symname_p@Base 3.2.0
 rb_enc_to_index@Base 3.2.0
 rb_enc_tolower@Base 3.2.0
 rb_enc_toupper@Base 3.2.0
 rb_enc_uint_chr@Base 3.2.0
 rb_enc_unicode_p@Base 3.2.0
 rb_enc_vsprintf@Base 3.2.0
 rb_encdb_alias@Base 3.2.0
 rb_encdb_declare@Base 3.2.0
 rb_encdb_dummy@Base 3.2.0
 rb_encdb_replicate@Base 3.2.0
 rb_ensure@Base 3.2.0
 rb_ensure_generic_iv_list_size@Base 3.2.0
 rb_ensure_iv_list_size@Base 3.2.0
 rb_enum_values_pack@Base 3.2.0
 rb_enumeratorize@Base 3.2.0
 rb_enumeratorize_with_size@Base 3.2.0
 rb_enumeratorize_with_size_kw@Base 3.2.0
 rb_env_clear@Base 3.2.0
 rb_eof_error@Base 3.2.0
 rb_eql@Base 3.2.0
 rb_equal@Base 3.2.0
 rb_errinfo@Base 3.2.0
 rb_error_arity@Base 3.2.0
 rb_error_frozen@Base 3.2.0
 rb_error_frozen_object@Base 3.2.0
 rb_estimate_iv_count@Base 3.2.0
 rb_eval_cmd_kw@Base 3.2.0
 rb_eval_string@Base 3.2.0
 rb_eval_string_protect@Base 3.2.0
 rb_eval_string_wrap@Base 3.2.0
 rb_exc_fatal@Base 3.2.0
 rb_exc_new@Base 3.2.0
 rb_exc_new_cstr@Base 3.2.0
 rb_exc_new_str@Base 3.2.0
 rb_exc_raise@Base 3.2.0
 rb_exc_set_backtrace@Base 3.2.0
 rb_exec_async_signal_safe@Base 3.2.0
 rb_exec_event_hooks@Base 3.2.0
 rb_exec_recursive@Base 3.2.0
 rb_exec_recursive_outer@Base 3.2.0
 rb_exec_recursive_paired@Base 3.2.0
 rb_exec_recursive_paired_outer@Base 3.2.0
 rb_execarg_addopt@Base 3.2.0
 rb_execarg_extract_options@Base 3.2.0
 rb_execarg_get@Base 3.2.0
 rb_execarg_new@Base 3.2.0
 rb_execarg_parent_end@Base 3.2.0
 rb_execarg_parent_start@Base 3.2.0
 rb_execarg_run_options@Base 3.2.0
 rb_execarg_setenv@Base 3.2.0
 rb_exit@Base 3.2.0
 rb_ext_ractor_safe@Base 3.2.0~preview2
 rb_extend_object@Base 3.2.0
 rb_external_str_new@Base 3.2.0
 rb_external_str_new_cstr@Base 3.2.0
 rb_external_str_new_with_enc@Base 3.2.0
 rb_extract_keywords@Base 3.2.0
 rb_f_abort@Base 3.2.0
 rb_f_exec@Base 3.2.0
 rb_f_exit@Base 3.2.0
 rb_f_global_variables@Base 3.2.0
 rb_f_kill@Base 3.2.0
 rb_f_notimplement@Base 3.2.0
 rb_f_require@Base 3.2.0
 rb_f_sprintf@Base 3.2.0
 rb_f_trace_var@Base 3.2.0
 rb_f_untrace_var@Base 3.2.0
 rb_false@Base 3.2.0
 rb_false_to_s@Base 3.2.0
 rb_fatal@Base 3.2.0
 rb_fd_clr@Base 3.2.0
 rb_fd_copy@Base 3.2.0
 rb_fd_dup@Base 3.2.0
 rb_fd_fix_cloexec@Base 3.2.0
 rb_fd_init@Base 3.2.0
 rb_fd_isset@Base 3.2.0
 rb_fd_select@Base 3.2.0
 rb_fd_set@Base 3.2.0
 rb_fd_term@Base 3.2.0
 rb_fd_zero@Base 3.2.0
 rb_fdopen@Base 3.2.0
 rb_feature_provided@Base 3.2.0
 rb_fiber_alive_p@Base 3.2.0
 rb_fiber_current@Base 3.2.0
 rb_fiber_new@Base 3.2.0
 rb_fiber_new_storage@Base 3.2.0
 rb_fiber_raise@Base 3.2.0
 rb_fiber_resume@Base 3.2.0
 rb_fiber_resume_kw@Base 3.2.0
 rb_fiber_scheduler_address_resolve@Base 3.2.0
 rb_fiber_scheduler_block@Base 3.2.0
 rb_fiber_scheduler_close@Base 3.2.0
 rb_fiber_scheduler_current@Base 3.2.0
 rb_fiber_scheduler_current_for_thread@Base 3.2.0
 rb_fiber_scheduler_fiber@Base 3.2.0
 rb_fiber_scheduler_get@Base 3.2.0
 rb_fiber_scheduler_io_close@Base 3.2.0
 rb_fiber_scheduler_io_pread@Base 3.2.0
 rb_fiber_scheduler_io_pwrite@Base 3.2.0
 rb_fiber_scheduler_io_read@Base 3.2.0
 rb_fiber_scheduler_io_read_memory@Base 3.2.0
 rb_fiber_scheduler_io_select@Base 3.2.0
 rb_fiber_scheduler_io_selectv@Base 3.2.0
 rb_fiber_scheduler_io_wait@Base 3.2.0
 rb_fiber_scheduler_io_wait_readable@Base 3.2.0
 rb_fiber_scheduler_io_wait_writable@Base 3.2.0
 rb_fiber_scheduler_io_write@Base 3.2.0
 rb_fiber_scheduler_io_write_memory@Base 3.2.0
 rb_fiber_scheduler_kernel_sleep@Base 3.2.0
 rb_fiber_scheduler_kernel_sleepv@Base 3.2.0
 rb_fiber_scheduler_make_timeout@Base 3.2.0
 rb_fiber_scheduler_process_wait@Base 3.2.0
 rb_fiber_scheduler_set@Base 3.2.0
 rb_fiber_scheduler_unblock@Base 3.2.0
 rb_fiber_transfer@Base 3.2.0
 rb_fiber_transfer_kw@Base 3.2.0
 rb_fiber_yield@Base 3.2.0
 rb_fiber_yield_kw@Base 3.2.0
 rb_file_absolute_path@Base 3.2.0
 rb_file_directory_p@Base 3.2.0
 rb_file_dirname@Base 3.2.0
 rb_file_expand_path@Base 3.2.0
 rb_file_open@Base 3.2.0
 rb_file_open_str@Base 3.2.0
 rb_file_s_absolute_path@Base 3.2.0
 rb_file_s_expand_path@Base 3.2.0
 rb_file_size@Base 3.2.0
 rb_filesystem_encindex@Base 3.2.0
 rb_filesystem_encoding@Base 3.2.0
 rb_filesystem_str_new@Base 3.2.0
 rb_filesystem_str_new_cstr@Base 3.2.0
 rb_find_defined_class_by_owner@Base 3.2.0
 rb_find_encoding@Base 3.2.0
 rb_find_file@Base 3.2.0
 rb_find_file_ext@Base 3.2.0
 rb_fix2int@Base 3.2.0
 rb_fix2short@Base 3.2.0
 rb_fix2str@Base 3.2.0
 rb_fix2uint@Base 3.2.0
 rb_fix2ushort@Base 3.2.0
 rb_fix_aref@Base 3.2.0
 rb_fix_to_s@Base 3.2.0
 rb_flo_div_flo@Base 3.2.0
 rb_float_abs@Base 3.2.0
 rb_float_cmp@Base 3.2.0
 rb_float_eql@Base 3.2.0
 rb_float_equal@Base 3.2.0
 rb_float_new@Base 3.2.0
 rb_float_new_in_heap@Base 3.2.0
 rb_float_uminus@Base 3.2.0
 rb_float_value@Base 3.2.0
 rb_flt_rationalize@Base 3.2.0
 rb_flt_rationalize_with_prec@Base 3.2.0
 rb_fork_async_signal_safe@Base 3.2.0
 rb_frame_callee@Base 3.2.0
 rb_frame_method_id_and_class@Base 3.2.0
 rb_frame_this_func@Base 3.2.0
 rb_free_generic_ivar@Base 3.2.0
 rb_free_tmp_buffer@Base 3.2.0
 rb_freeze_singleton_class@Base 3.2.0
 rb_frozen_error_raise@Base 3.2.0
 rb_fs@Base 3.2.0
 rb_fstring@Base 3.2.0
 rb_fstring_new@Base 3.2.0
 rb_func_lambda_new@Base 3.2.0
 rb_func_proc_new@Base 3.2.0
 rb_funcall@Base 3.2.0
 rb_funcall_passing_block@Base 3.2.0
 rb_funcall_passing_block_kw@Base 3.2.0
 rb_funcall_with_block@Base 3.2.0
 rb_funcall_with_block_kw@Base 3.2.0
 rb_funcallv@Base 3.2.0
 rb_funcallv_kw@Base 3.2.0
 rb_funcallv_public@Base 3.2.0
 rb_funcallv_public_kw@Base 3.2.0
 rb_gc@Base 3.2.0
 rb_gc_adjust_memory_usage@Base 3.2.0
 rb_gc_copy_finalizer@Base 3.2.0
 rb_gc_count@Base 3.2.0
 rb_gc_disable@Base 3.2.0
 rb_gc_enable@Base 3.2.0
 rb_gc_for_fd@Base 3.2.0
 rb_gc_force_recycle@Base 3.2.0
 rb_gc_latest_gc_info@Base 3.2.0
 rb_gc_location@Base 3.2.0
 rb_gc_mark@Base 3.2.0
 rb_gc_mark_locations@Base 3.2.0
 rb_gc_mark_maybe@Base 3.2.0
 rb_gc_mark_movable@Base 3.2.0
 rb_gc_mark_values@Base 3.2.0
 rb_gc_mark_vm_stack_values@Base 3.2.0
 rb_gc_obj_slot_size@Base 3.2.0
 rb_gc_ractor_newobj_cache_clear@Base 3.2.3.2
 rb_gc_register_address@Base 3.2.0
 rb_gc_register_mark_object@Base 3.2.0
 rb_gc_start@Base 3.2.0
 rb_gc_stat@Base 3.2.0
 rb_gc_unregister_address@Base 3.2.0
 rb_gc_update_tbl_refs@Base 3.2.0
 rb_gc_verify_internal_consistency@Base 3.2.0
 rb_gc_writebarrier@Base 3.2.0
 rb_gc_writebarrier_remember@Base 3.2.0
 rb_gc_writebarrier_unprotect@Base 3.2.0
 rb_gcd@Base 3.2.0
 rb_gcd_gmp@Base 3.2.0
 rb_gcd_normal@Base 3.2.0
 rb_gen_ivtbl_get@Base 3.2.0
 rb_generic_ivar_memsize@Base 3.2.0
 rb_genrand_int32@Base 3.2.0
 rb_genrand_real@Base 3.2.0
 rb_genrand_ulong_limited@Base 3.2.0
 rb_get_alloc_func@Base 3.2.0
 rb_get_argv@Base 3.2.0
 rb_get_coverages@Base 3.2.0
 rb_get_freeze_opt@Base 3.2.0
 rb_get_kwargs@Base 3.2.0
 rb_get_path@Base 3.2.0
 rb_get_path_no_checksafe@Base 3.2.0
 rb_get_values_at@Base 3.2.0
 rb_gets@Base 3.2.0
 rb_glob@Base 3.2.0
 rb_global_variable@Base 3.2.0
 rb_grantpt@Base 3.2.0
 rb_grow_iv_list@Base 3.2.0
 rb_gv_get@Base 3.2.0
 rb_gv_set@Base 3.2.0
 rb_gvar_defined@Base 3.2.0
 rb_gvar_get@Base 3.2.0
 rb_gvar_readonly_setter@Base 3.2.0
 rb_gvar_set@Base 3.2.0
 rb_gvar_undef_getter@Base 3.2.0
 rb_gvar_undef_marker@Base 3.2.0
 rb_gvar_undef_setter@Base 3.2.0
 rb_gvar_val_getter@Base 3.2.0
 rb_gvar_val_marker@Base 3.2.0
 rb_gvar_val_setter@Base 3.2.0
 rb_gvar_var_getter@Base 3.2.0
 rb_gvar_var_marker@Base 3.2.0
 rb_gvar_var_setter@Base 3.2.0
 rb_hash@Base 3.2.0
 rb_hash_aref@Base 3.2.0
 rb_hash_aset@Base 3.2.0
 rb_hash_bulk_insert@Base 3.2.0
 rb_hash_bulk_insert_into_st_table@Base 3.2.0
 rb_hash_clear@Base 3.2.0
 rb_hash_compare_by_id_p@Base 3.2.0
 rb_hash_delete@Base 3.2.0
 rb_hash_delete_entry@Base 3.2.0
 rb_hash_delete_if@Base 3.2.0
 rb_hash_dup@Base 3.2.0
 rb_hash_fetch@Base 3.2.0
 rb_hash_foreach@Base 3.2.0
 rb_hash_freeze@Base 3.2.0
 rb_hash_has_key@Base 3.2.0
 rb_hash_keys@Base 3.2.0
 rb_hash_lookup2@Base 3.2.0
 rb_hash_lookup@Base 3.2.0
 rb_hash_new@Base 3.2.0
 rb_hash_new_capa@Base 3.2.0
 rb_hash_new_with_size@Base 3.2.0
 rb_hash_resurrect@Base 3.2.0
 rb_hash_set_ifnone@Base 3.2.0
 rb_hash_size@Base 3.2.0
 rb_hash_size_num@Base 3.2.0
 rb_hash_start@Base 3.2.0
 rb_hash_stlike_foreach@Base 3.2.0
 rb_hash_stlike_lookup@Base 3.2.0
 rb_hash_tbl@Base 3.2.0
 rb_hash_tbl_raw@Base 3.2.0
 rb_hash_update_by@Base 3.2.0
 rb_id2name@Base 3.2.0
 rb_id2str@Base 3.2.0
 rb_id2sym@Base 3.2.0
 rb_id_attrset@Base 3.2.0
 rb_id_quote_unprintable@Base 3.2.0
 rb_id_table_create@Base 3.2.0
 rb_id_table_insert@Base 3.2.0
 rb_id_table_lookup@Base 3.2.0
 rb_id_table_size@Base 3.2.0
 rb_ident_hash_new@Base 3.2.0
 rb_imemo_name@Base 3.2.0
 rb_imemo_new@Base 3.2.0
 rb_include_module@Base 3.2.0
 rb_inspect@Base 3.2.0
 (arch-bits=64)rb_int128t2big@Base 3.2.0
 rb_int2big@Base 3.2.0
 rb_int2inum@Base 3.2.0
 rb_int_abs@Base 3.2.0
 rb_int_bit_length@Base 3.2.0
 rb_int_comp@Base 3.2.0
 rb_int_even_p@Base 3.2.0
 rb_int_odd_p@Base 3.2.0
 rb_int_pair_to_real@Base 3.2.0
 rb_int_parse_cstr@Base 3.2.0
 rb_int_positive_pow@Base 3.2.0
 rb_int_size@Base 3.2.0
 rb_int_to_s@Base 3.2.0
 rb_int_uminus@Base 3.2.0
 rb_int_zero_p@Base 3.2.0
 rb_integer_pack@Base 3.2.0
 rb_integer_unpack@Base 3.2.0
 rb_intern2@Base 3.2.0
 rb_intern3@Base 3.2.0
 rb_intern@Base 3.2.0
 rb_intern_str@Base 3.2.0
 rb_internal_thread_add_event_hook@Base 3.2.0
 rb_internal_thread_remove_event_hook@Base 3.2.0
 rb_interned_str@Base 3.2.0~preview2
 rb_interned_str_cstr@Base 3.2.0~preview2
 rb_interrupt@Base 3.2.0
 rb_invalid_str@Base 3.2.0
 rb_io_addstr@Base 3.2.0
 rb_io_ascii8bit_binmode@Base 3.2.0
 rb_io_binmode@Base 3.2.0
 rb_io_buffer_clear@Base 3.2.0
 rb_io_buffer_free@Base 3.2.0
 rb_io_buffer_get_bytes@Base 3.2.0
 rb_io_buffer_get_bytes_for_reading@Base 3.2.0
 rb_io_buffer_get_bytes_for_writing@Base 3.2.0
 rb_io_buffer_lock@Base 3.2.0
 rb_io_buffer_map@Base 3.2.0
 rb_io_buffer_new@Base 3.2.0
 rb_io_buffer_pread@Base 3.2.0
 rb_io_buffer_pwrite@Base 3.2.0
 rb_io_buffer_read@Base 3.2.0
 rb_io_buffer_resize@Base 3.2.0
 rb_io_buffer_transfer@Base 3.2.0
 rb_io_buffer_try_unlock@Base 3.2.0
 rb_io_buffer_unlock@Base 3.2.0
 rb_io_buffer_write@Base 3.2.0
 rb_io_bufwrite@Base 3.2.0
 rb_io_check_byte_readable@Base 3.2.0
 rb_io_check_char_readable@Base 3.2.0
 rb_io_check_closed@Base 3.2.0
 rb_io_check_initialized@Base 3.2.0
 rb_io_check_io@Base 3.2.0
 rb_io_check_readable@Base 3.2.0
 rb_io_check_writable@Base 3.2.0
 rb_io_close@Base 3.2.0
 rb_io_descriptor@Base 3.2.0
 rb_io_eof@Base 3.2.0
 rb_io_extract_encoding_option@Base 3.2.0
 rb_io_extract_modeenc@Base 3.2.0
 rb_io_fdopen@Base 3.2.0
 rb_io_flush@Base 3.2.0
 rb_io_get_io@Base 3.2.0
 rb_io_get_write_io@Base 3.2.0
 rb_io_getbyte@Base 3.2.0
 rb_io_gets@Base 3.2.0
 rb_io_make_open_file@Base 3.2.0
 rb_io_maybe_wait@Base 3.2.0
 rb_io_maybe_wait_readable@Base 3.2.0
 rb_io_maybe_wait_writable@Base 3.2.0
 rb_io_memsize@Base 3.2.0
 rb_io_modestr_fmode@Base 3.2.0
 rb_io_modestr_oflags@Base 3.2.0
 rb_io_oflags_fmode@Base 3.2.0
 rb_io_print@Base 3.2.0
 rb_io_printf@Base 3.2.0
 rb_io_puts@Base 3.2.0
 rb_io_read_check@Base 3.2.0
 rb_io_read_pending@Base 3.2.0
 rb_io_set_nonblock@Base 3.2.0
 rb_io_set_timeout@Base 3.2.0
 rb_io_set_write_io@Base 3.2.0
 rb_io_stdio_file@Base 3.2.0
 rb_io_synchronized@Base 3.2.0
 rb_io_taint_check@Base 3.2.0
 rb_io_timeout@Base 3.2.0
 rb_io_ungetbyte@Base 3.2.0
 rb_io_ungetc@Base 3.2.0
 rb_io_wait@Base 3.2.0
 rb_io_wait_readable@Base 3.2.0
 rb_io_wait_writable@Base 3.2.0
 rb_io_write@Base 3.2.0
 rb_is_absolute_path@Base 3.2.0
 rb_is_attrset_id@Base 3.2.0
 rb_is_class_id@Base 3.2.0
 rb_is_const_id@Base 3.2.0
 rb_is_global_id@Base 3.2.0
 rb_is_instance_id@Base 3.2.0
 rb_is_junk_id@Base 3.2.0
 rb_is_local_id@Base 3.2.0
 rb_iseq_absolute_path@Base 3.2.0
 rb_iseq_base_label@Base 3.2.0
 rb_iseq_build_from_ary@Base 3.2.0
 rb_iseq_code_location@Base 3.2.0
 rb_iseq_compile_callback@Base 3.2.0
 rb_iseq_compile_node@Base 3.2.0
 rb_iseq_constant_body_alloc@Base 3.2.0
 rb_iseq_coverage@Base 3.2.0
 rb_iseq_defined_string@Base 3.2.0
 rb_iseq_disasm@Base 3.2.0
 rb_iseq_disasm_insn@Base 3.2.0
 rb_iseq_eval@Base 3.2.0
 rb_iseq_eval_main@Base 3.2.0
 rb_iseq_event_flags@Base 3.2.0
 rb_iseq_first_lineno@Base 3.2.0
 rb_iseq_from_eval_p@Base 3.2.0
 rb_iseq_insns_info_encode_positions@Base 3.2.0
 rb_iseq_label@Base 3.2.0
 rb_iseq_line_no@Base 3.2.0
 rb_iseq_load@Base 3.2.0
 rb_iseq_local_variables@Base 3.2.0
 rb_iseq_location@Base 3.2.0
 rb_iseq_mark_insn_storage@Base 3.2.0
 rb_iseq_method_name@Base 3.2.0
 rb_iseq_new@Base 3.2.0
 rb_iseq_new_eval@Base 3.2.0~preview2
 rb_iseq_new_main@Base 3.2.0
 rb_iseq_new_top@Base 3.2.0
 rb_iseq_new_with_callback@Base 3.2.0
 rb_iseq_new_with_opt@Base 3.2.0
 rb_iseq_node_id@Base 3.2.0
 rb_iseq_only_kwparam_p@Base 3.2.0
 rb_iseq_only_optparam_p@Base 3.2.0
 rb_iseq_original_iseq@Base 3.2.0
 rb_iseq_parameters@Base 3.2.0
 rb_iseq_path@Base 3.2.0
 rb_iseq_realpath@Base 3.2.0
 rb_iseq_remove_coverage_all@Base 3.2.0
 rb_iseq_trace_set@Base 3.2.0
 rb_iseq_trace_set_all@Base 3.2.0
 rb_iseq_type@Base 3.2.0
 rb_iseqw_new@Base 3.2.0
 rb_iseqw_to_iseq@Base 3.2.0
 rb_iter_break@Base 3.2.0
 rb_iter_break_value@Base 3.2.0
 rb_iterate@Base 3.2.0
 rb_iv_get@Base 3.2.0
 rb_iv_set@Base 3.2.0
 rb_iv_tbl_copy@Base 3.2.0
 rb_ivar_count@Base 3.2.0
 rb_ivar_defined@Base 3.2.0
 rb_ivar_foreach@Base 3.2.0
 rb_ivar_generic_ivtbl_lookup@Base 3.2.0~preview2
 rb_ivar_get@Base 3.2.0
 rb_ivar_lookup@Base 3.2.0
 rb_ivar_set@Base 3.2.0
 rb_jump_tag@Base 3.2.0
 rb_keyword_error_new@Base 3.2.0
 rb_keyword_given_p@Base 3.2.0
 rb_last_status_get@Base 3.2.0
 rb_last_status_set@Base 3.2.0
 rb_lastline_get@Base 3.2.0
 rb_lastline_set@Base 3.2.0
 rb_ll2inum@Base 3.2.0
 rb_load@Base 3.2.0
 rb_load_file@Base 3.2.0
 rb_load_file_str@Base 3.2.0
 rb_load_protect@Base 3.2.0
 rb_loaderror@Base 3.2.0
 rb_loaderror_with_path@Base 3.2.0
 rb_locale_charmap@Base 3.2.0
 rb_locale_encindex@Base 3.2.0
 rb_locale_encoding@Base 3.2.0
 rb_locale_str_new@Base 3.2.0
 rb_locale_str_new_cstr@Base 3.2.0
 rb_mComparable@Base 3.2.0
 rb_mEnumerable@Base 3.2.0
 rb_mErrno@Base 3.2.0
 rb_mFileTest@Base 3.2.0
 rb_mGC@Base 3.2.0
 rb_mKernel@Base 3.2.0
 rb_mMath@Base 3.2.0
 rb_mProcess@Base 3.2.0
 rb_mRubyVMFrozenCore@Base 3.2.0
 rb_mWaitReadable@Base 3.2.0
 rb_mWaitWritable@Base 3.2.0
 rb_make_backtrace@Base 3.2.0
 rb_make_exception@Base 3.2.0
 rb_make_no_method_exception@Base 3.2.0
 rb_mark_generic_ivar@Base 3.2.0
 rb_mark_hash@Base 3.2.0
 rb_mark_set@Base 3.2.0
 rb_mark_tbl@Base 3.2.0
 rb_mark_tbl_no_pin@Base 3.2.0
 rb_marshal_define_compat@Base 3.2.0
 rb_marshal_dump@Base 3.2.0
 rb_marshal_load@Base 3.2.0
 rb_match_busy@Base 3.2.0
 rb_maygvl_fd_fix_cloexec@Base 3.2.0
 rb_mem_clear@Base 3.2.0
 rb_memcicmp@Base 3.2.0
 rb_memerror@Base 3.2.0
 rb_memhash@Base 3.2.0
 rb_memory_id@Base 3.2.0
 rb_memory_view_available_p@Base 3.2.0
 rb_memory_view_exported_object_registry@Base 3.2.0~preview2
 rb_memory_view_exported_object_registry_data_type@Base 3.2.0~preview2
 rb_memory_view_extract_item_members@Base 3.2.0~preview2
 rb_memory_view_fill_contiguous_strides@Base 3.2.0
 rb_memory_view_get@Base 3.2.0
 rb_memory_view_get_item@Base 3.2.0~rc1
 rb_memory_view_get_item_pointer@Base 3.2.0
 rb_memory_view_init_as_byte_array@Base 3.2.0
 rb_memory_view_is_column_major_contiguous@Base 3.2.0
 rb_memory_view_is_row_major_contiguous@Base 3.2.0
 rb_memory_view_item_size_from_format@Base 3.2.0
 rb_memory_view_parse_item_format@Base 3.2.0
 rb_memory_view_prepare_item_desc@Base 3.2.0~rc1
 rb_memory_view_register@Base 3.2.0
 rb_memory_view_release@Base 3.2.0
 rb_memsearch@Base 3.2.0
 rb_method_basic_definition_p@Base 3.2.0
 rb_method_boundp@Base 3.2.0
 rb_method_call@Base 3.2.0
 rb_method_call_kw@Base 3.2.0
 rb_method_call_with_block@Base 3.2.0
 rb_method_call_with_block_kw@Base 3.2.0
 rb_method_definition_create@Base 3.2.0
 rb_method_definition_eq@Base 3.2.0
 rb_method_definition_set@Base 3.2.0
 rb_method_entry@Base 3.2.0
 rb_method_entry_complement_defined_class@Base 3.2.0
 rb_method_entry_with_refinements@Base 3.2.0
 rb_method_iseq@Base 3.2.0
 rb_mjit_add_iseq_to_process@Base 3.2.0
 rb_mjit_bop_redefined@Base 3.2.0
 rb_mjit_cme_invalidate@Base 3.2.0
 rb_mjit_constant_ic_update@Base 3.2.0
 rb_mjit_constant_state_changed@Base 3.2.0
 rb_mjit_iseq_compile_info@Base 3.2.0
 rb_mjit_recompile_const@Base 3.2.0~rc1
 rb_mjit_recompile_exivar@Base 3.2.0
 rb_mjit_recompile_inlining@Base 3.2.0
 rb_mjit_recompile_ivar@Base 3.2.0
 rb_mjit_recompile_send@Base 3.2.0
 rb_mjit_tracing_invalidate_all@Base 3.2.0
 rb_mod_ancestors@Base 3.2.0
 rb_mod_class_variables@Base 3.2.0
 rb_mod_const_at@Base 3.2.0
 rb_mod_const_of@Base 3.2.0
 rb_mod_constants@Base 3.2.0
 rb_mod_include_p@Base 3.2.0
 rb_mod_included_modules@Base 3.2.0
 rb_mod_init_copy@Base 3.2.0
 rb_mod_method_arity@Base 3.2.0
 rb_mod_module_eval@Base 3.2.0
 rb_mod_module_exec@Base 3.2.0
 rb_mod_name@Base 3.2.0
 rb_mod_remove_const@Base 3.2.0
 rb_mod_remove_cvar@Base 3.2.0
 rb_mod_sys_fail@Base 3.2.0
 rb_mod_sys_fail_str@Base 3.2.0
 rb_mod_syserr_fail@Base 3.2.0
 rb_mod_syserr_fail_str@Base 3.2.0
 rb_mod_to_s@Base 3.2.0
 rb_module_new@Base 3.2.0
 rb_must_asciicompat@Base 3.2.0
 rb_mutex_lock@Base 3.2.0
 rb_mutex_locked_p@Base 3.2.0
 rb_mutex_new@Base 3.2.0
 rb_mutex_sleep@Base 3.2.0
 rb_mutex_synchronize@Base 3.2.0
 rb_mutex_trylock@Base 3.2.0
 rb_mutex_unlock@Base 3.2.0
 rb_mv_generic_ivar@Base 3.2.0
 rb_name_error@Base 3.2.0
 rb_name_error_str@Base 3.2.0
 rb_native_cond_broadcast@Base 3.2.0~preview2
 rb_native_cond_destroy@Base 3.2.0~preview2
 rb_native_cond_initialize@Base 3.2.0~preview2
 rb_native_cond_signal@Base 3.2.0~preview2
 rb_native_cond_timedwait@Base 3.2.0~preview2
 rb_native_cond_wait@Base 3.2.0~preview2
 rb_native_mutex_destroy@Base 3.2.0~preview2
 rb_native_mutex_initialize@Base 3.2.0~preview2
 rb_native_mutex_lock@Base 3.2.0~preview2
 rb_native_mutex_trylock@Base 3.2.0~preview2
 rb_native_mutex_unlock@Base 3.2.0~preview2
 rb_nativethread_lock_destroy@Base 3.2.0
 rb_nativethread_lock_initialize@Base 3.2.0
 rb_nativethread_lock_lock@Base 3.2.0
 rb_nativethread_lock_unlock@Base 3.2.0
 rb_nativethread_self@Base 3.2.0
 rb_need_block@Base 3.2.0
 rb_newobj@Base 3.2.0
 rb_newobj_of@Base 3.2.0
 rb_nil_to_s@Base 3.2.0
 rb_node_init@Base 3.2.0
 rb_nogvl@Base 3.2.0
 rb_notimplement@Base 3.2.0
 rb_num2dbl@Base 3.2.0
 rb_num2fix@Base 3.2.0
 rb_num2int@Base 3.2.0
 rb_num2ll@Base 3.2.0
 rb_num2long@Base 3.2.0
 rb_num2short@Base 3.2.0
 rb_num2uint@Base 3.2.0
 rb_num2ull@Base 3.2.0
 rb_num2ulong@Base 3.2.0
 rb_num2ushort@Base 3.2.0
 rb_num_coerce_bin@Base 3.2.0
 rb_num_coerce_bit@Base 3.2.0
 rb_num_coerce_cmp@Base 3.2.0
 rb_num_coerce_relop@Base 3.2.0
 rb_num_zerodiv@Base 3.2.0
 rb_obj_alloc@Base 3.2.0
 rb_obj_as_string@Base 3.2.0
 rb_obj_as_string_result@Base 3.2.0
 rb_obj_call_init@Base 3.2.0
 rb_obj_call_init_kw@Base 3.2.0
 rb_obj_class@Base 3.2.0
 rb_obj_classname@Base 3.2.0
 rb_obj_clone@Base 3.2.0
 rb_obj_copy_ivar@Base 3.2.0
 rb_obj_dup@Base 3.2.0
 rb_obj_encoding@Base 3.2.0
 rb_obj_equal@Base 3.2.0
 rb_obj_freeze@Base 3.2.0
 rb_obj_freeze_inline@Base 3.2.0
 rb_obj_frozen_p@Base 3.2.0
 rb_obj_gc_flags@Base 3.2.0
 rb_obj_hide@Base 3.2.0
 rb_obj_id@Base 3.2.0
 rb_obj_info@Base 3.2.0
 rb_obj_info_dump_loc@Base 3.2.0
 rb_obj_init_copy@Base 3.2.0
 rb_obj_instance_eval@Base 3.2.0
 rb_obj_instance_exec@Base 3.2.0
 rb_obj_instance_variables@Base 3.2.0
 rb_obj_is_fiber@Base 3.2.0
 rb_obj_is_instance_of@Base 3.2.0
 rb_obj_is_kind_of@Base 3.2.0
 rb_obj_is_method@Base 3.2.0
 rb_obj_is_proc@Base 3.2.0
 rb_obj_ivar_set@Base 3.2.0
 rb_obj_memsize_of@Base 3.2.0
 rb_obj_method@Base 3.2.0
 rb_obj_method_arity@Base 3.2.0
 rb_obj_not@Base 3.2.0
 rb_obj_not_equal@Base 3.2.0
 rb_obj_remove_instance_variable@Base 3.2.0
 rb_obj_respond_to@Base 3.2.0
 rb_obj_reveal@Base 3.2.0
 rb_obj_setup@Base 3.2.0
 rb_obj_singleton_methods@Base 3.2.0
 rb_obj_size@Base 3.2.0
 rb_objspace_data_type_memsize@Base 3.2.0
 rb_objspace_data_type_name@Base 3.2.0
 rb_objspace_each_objects@Base 3.2.0
 rb_objspace_each_objects_without_setup@Base 3.2.0
 rb_objspace_internal_object_p@Base 3.2.0
 rb_objspace_markable_object_p@Base 3.2.0
 rb_objspace_marked_object_p@Base 3.2.0
 rb_objspace_reachable_objects_from@Base 3.2.0
 rb_objspace_reachable_objects_from_root@Base 3.2.0
 rb_opts_exception_p@Base 3.2.0
 rb_out_of_int@Base 3.2.0
 rb_output_fs@Base 3.2.0
 rb_output_rs@Base 3.2.0
 rb_p@Base 3.2.0
 rb_parser_calloc@Base 3.2.0
 rb_parser_compile_file_path@Base 3.2.0
 rb_parser_compile_generic@Base 3.2.0
 rb_parser_compile_string@Base 3.2.0
 rb_parser_compile_string_path@Base 3.2.0
 rb_parser_dump_tree@Base 3.2.0
 rb_parser_encoding@Base 3.2.0
 rb_parser_end_seen_p@Base 3.2.0
 rb_parser_fatal@Base 3.2.0
 rb_parser_free@Base 3.2.0
 rb_parser_lex_state_name@Base 3.2.0
 rb_parser_malloc@Base 3.2.0
 rb_parser_new@Base 3.2.0
 rb_parser_printf@Base 3.2.0
 rb_parser_realloc@Base 3.2.0
 rb_parser_reg_compile@Base 3.2.0
 rb_parser_set_context@Base 3.2.0
 rb_parser_set_location@Base 3.2.0
 rb_parser_set_location_from_strterm_heredoc@Base 3.2.0
 rb_parser_set_location_of_delayed_token@Base 3.2.0
 rb_parser_set_location_of_dummy_end@Base 3.2.0
 rb_parser_set_location_of_heredoc_end@Base 3.2.0
 rb_parser_set_location_of_none@Base 3.2.0
 rb_parser_set_options@Base 3.2.0
 rb_parser_set_yydebug@Base 3.2.0
 rb_parser_show_bitstack@Base 3.2.0
 rb_parser_trace_lex_state@Base 3.2.0
 rb_path2class@Base 3.2.0
 rb_path_check@Base 3.2.0
 rb_path_to_class@Base 3.2.0
 rb_pipe@Base 3.2.0
 rb_postponed_job_flush@Base 3.2.0
 rb_postponed_job_register@Base 3.2.0
 rb_postponed_job_register_one@Base 3.2.0
 rb_prepend_module@Base 3.2.0
 rb_proc_arity@Base 3.2.0
 rb_proc_call@Base 3.2.0
 rb_proc_call_kw@Base 3.2.0
 rb_proc_call_with_block@Base 3.2.0
 rb_proc_call_with_block_kw@Base 3.2.0
 rb_proc_exec@Base 3.2.0
 rb_proc_get_iseq@Base 3.2.0
 rb_proc_isolate@Base 3.2.0
 rb_proc_isolate_bang@Base 3.2.0
 rb_proc_lambda_p@Base 3.2.0
 rb_proc_new@Base 3.2.0
 rb_proc_ractor_make_shareable@Base 3.2.0
 rb_proc_times@Base 3.2.0
 rb_profile_frame_absolute_path@Base 3.2.0
 rb_profile_frame_base_label@Base 3.2.0
 rb_profile_frame_classpath@Base 3.2.0
 rb_profile_frame_first_lineno@Base 3.2.0
 rb_profile_frame_full_label@Base 3.2.0
 rb_profile_frame_label@Base 3.2.0
 rb_profile_frame_method_name@Base 3.2.0
 rb_profile_frame_path@Base 3.2.0
 rb_profile_frame_qualified_method_name@Base 3.2.0
 rb_profile_frame_singleton_method_p@Base 3.2.0
 rb_profile_frames@Base 3.2.0
 rb_protect@Base 3.2.0
 rb_provide@Base 3.2.0
 rb_provided@Base 3.2.0
 rb_public_const_defined_from@Base 3.2.0
 rb_public_const_get_at@Base 3.2.0
 rb_public_const_get_from@Base 3.2.0
 rb_ractor_local_storage_delkey@Base 3.2.0~preview2
 rb_ractor_local_storage_ptr@Base 3.2.0~preview2
 rb_ractor_local_storage_ptr_newkey@Base 3.2.0~preview2
 rb_ractor_local_storage_ptr_set@Base 3.2.0~preview2
 rb_ractor_local_storage_type_free@Base 3.2.0~preview2
 rb_ractor_local_storage_value@Base 3.2.0~preview2
 rb_ractor_local_storage_value_lookup@Base 3.2.0
 rb_ractor_local_storage_value_newkey@Base 3.2.0~preview2
 rb_ractor_local_storage_value_set@Base 3.2.0~preview2
 rb_ractor_main_p_@Base 3.2.0
 rb_ractor_make_shareable@Base 3.2.0
 rb_ractor_make_shareable_copy@Base 3.2.0
 rb_ractor_shareable_p_continue@Base 3.2.0
 rb_ractor_stderr@Base 3.2.0
 rb_ractor_stderr_set@Base 3.2.0
 rb_ractor_stdin@Base 3.2.0
 rb_ractor_stdin_set@Base 3.2.0
 rb_ractor_stdout@Base 3.2.0
 rb_ractor_stdout_set@Base 3.2.0
 rb_raise@Base 3.2.0
 rb_rand_bytes_int32@Base 3.2.0
 rb_random_base_init@Base 3.2.0
 rb_random_bytes@Base 3.2.0
 rb_random_data_type_1_0@Base 3.2.0
 rb_random_int32@Base 3.2.0
 rb_random_mark@Base 3.2.0
 rb_random_real@Base 3.2.0
 rb_random_ulong_limited@Base 3.2.0
 rb_range_beg_len@Base 3.2.0
 rb_range_new@Base 3.2.0
 rb_range_values@Base 3.2.0
 rb_rational_den@Base 3.2.0
 rb_rational_new@Base 3.2.0
 rb_rational_num@Base 3.2.0
 rb_rational_raw@Base 3.2.0
 rb_readlink@Base 3.2.0
 rb_readwrite_sys_fail@Base 3.2.0
 rb_readwrite_syserr_fail@Base 3.2.0
 rb_refinement_new@Base 3.2.0
 rb_reg_adjust_startpos@Base 3.2.0
 rb_reg_alloc@Base 3.2.0
 rb_reg_backref_number@Base 3.2.0
 rb_reg_check_timeout@Base 3.2.0
 rb_reg_fragment_setenc@Base 3.2.0
 rb_reg_init_str@Base 3.2.0
 rb_reg_last_match@Base 3.2.0
 rb_reg_match2@Base 3.2.0
 rb_reg_match@Base 3.2.0
 rb_reg_match_last@Base 3.2.0
 rb_reg_match_post@Base 3.2.0
 rb_reg_match_pre@Base 3.2.0
 rb_reg_new@Base 3.2.0
 rb_reg_new_ary@Base 3.2.0
 rb_reg_new_str@Base 3.2.0
 rb_reg_nth_defined@Base 3.2.0
 rb_reg_nth_match@Base 3.2.0
 rb_reg_options@Base 3.2.0
 rb_reg_prepare_re@Base 3.2.0
 rb_reg_quote@Base 3.2.0
 rb_reg_regcomp@Base 3.2.0
 rb_reg_region_copy@Base 3.2.0
 rb_reg_regsub@Base 3.2.0
 rb_reg_search@Base 3.2.0
 rb_register_transcoder@Base 3.2.0
 rb_remove_event_hook@Base 3.2.0
 rb_remove_event_hook_with_data@Base 3.2.0
 rb_remove_method@Base 3.2.0
 rb_remove_method_id@Base 3.2.0
 rb_require@Base 3.2.0
 rb_require_string@Base 3.2.0
 rb_rescue2@Base 3.2.0
 rb_rescue@Base 3.2.0
 rb_reserved_fd_p@Base 3.2.0
 rb_reserved_word@Base 3.2.0
 rb_reset_coverages@Base 3.2.0
 rb_reset_random_seed@Base 3.2.0
 rb_resolve_me_location@Base 3.2.0
 rb_resolve_refined_method_callable@Base 3.2.0
 rb_respond_to@Base 3.2.0
 rb_resume_coverages@Base 3.2.0
 rb_rs@Base 3.2.0
 rb_ruby_debug_ptr@Base 3.2.0
 rb_ruby_verbose_ptr@Base 3.2.0
 rb_scan_args@Base 3.2.0
 rb_scan_args_kw@Base 3.2.0
 rb_set_class_path@Base 3.2.0
 rb_set_class_path_string@Base 3.2.0
 rb_set_coverages@Base 3.2.0
 rb_set_end_proc@Base 3.2.0
 rb_set_errinfo@Base 3.2.0
 rb_setup_fake_str@Base 3.2.0
 rb_shape_depth@Base 3.2.0
 rb_shape_each_shape@Base 3.2.0
 rb_shape_edges_count@Base 3.2.0
 rb_shape_frozen_shape_p@Base 3.2.0
 rb_shape_get_iv_index@Base 3.2.0
 rb_shape_get_next_iv_shape@Base 3.2.0
 rb_shape_get_shape_by_id@Base 3.2.0
 rb_shape_get_shape_id@Base 3.2.0
 rb_shape_id@Base 3.2.0
 rb_shape_memsize@Base 3.2.0
 rb_shape_obj_too_complex@Base 3.2.0
 rb_shape_set_shape@Base 3.2.0
 rb_singleton_class@Base 3.2.0
 rb_singleton_class_attached@Base 3.2.0
 rb_singleton_class_clone@Base 3.2.0
 rb_source_location_cstr@Base 3.2.0
 rb_sourcefile@Base 3.2.0
 rb_sourceline@Base 3.2.0
 rb_spawn@Base 3.2.0
 rb_spawn_err@Base 3.2.0
 rb_sprintf@Base 3.2.0
 rb_st_add_direct@Base 3.2.0
 rb_st_cleanup_safe@Base 3.2.0
 rb_st_clear@Base 3.2.0
 rb_st_copy@Base 3.2.0
 rb_st_delete@Base 3.2.0
 rb_st_delete_safe@Base 3.2.0
 rb_st_foreach@Base 3.2.0
 rb_st_foreach_check@Base 3.2.0
 rb_st_foreach_safe@Base 3.2.0
 rb_st_foreach_with_replace@Base 3.2.0
 rb_st_free_table@Base 3.2.0
 rb_st_get_key@Base 3.2.0
 rb_st_hash@Base 3.2.0
 rb_st_hash_end@Base 3.2.0
 rb_st_hash_start@Base 3.2.0
 rb_st_hash_uint32@Base 3.2.0
 rb_st_hash_uint@Base 3.2.0
 rb_st_init_numtable@Base 3.2.0
 rb_st_init_numtable_with_size@Base 3.2.0
 rb_st_init_strcasetable@Base 3.2.0
 rb_st_init_strcasetable_with_size@Base 3.2.0
 rb_st_init_strtable@Base 3.2.0
 rb_st_init_strtable_with_size@Base 3.2.0
 rb_st_init_table@Base 3.2.0
 rb_st_init_table_with_size@Base 3.2.0
 rb_st_insert2@Base 3.2.0
 rb_st_insert@Base 3.2.0
 rb_st_keys@Base 3.2.0
 rb_st_keys_check@Base 3.2.0
 rb_st_locale_insensitive_strcasecmp@Base 3.2.0
 rb_st_locale_insensitive_strncasecmp@Base 3.2.0
 rb_st_lookup@Base 3.2.0
 rb_st_memsize@Base 3.2.0
 rb_st_numcmp@Base 3.2.0
 rb_st_numhash@Base 3.2.0
 rb_st_shift@Base 3.2.0
 rb_st_update@Base 3.2.0
 rb_st_values@Base 3.2.0
 rb_st_values_check@Base 3.2.0
 rb_stat_new@Base 3.2.0
 rb_stderr@Base 3.2.0
 rb_stdin@Base 3.2.0
 rb_stdout@Base 3.2.0
 rb_str2big_gmp@Base 3.2.0
 rb_str2big_karatsuba@Base 3.2.0
 rb_str2big_normal@Base 3.2.0
 rb_str2big_poweroftwo@Base 3.2.0
 rb_str2inum@Base 3.2.0
 rb_str_append@Base 3.2.0
 rb_str_buf_append@Base 3.2.0
 rb_str_buf_cat2@Base 3.2.0
 rb_str_buf_cat@Base 3.2.0
 rb_str_buf_cat_ascii@Base 3.2.0
 rb_str_buf_new@Base 3.2.0
 rb_str_buf_new_cstr@Base 3.2.0
 rb_str_capacity@Base 3.2.0
 rb_str_cat2@Base 3.2.0
 rb_str_cat@Base 3.2.0
 rb_str_cat_cstr@Base 3.2.0
 rb_str_catf@Base 3.2.0
 rb_str_cmp@Base 3.2.0
 rb_str_coderange_scan_restartable@Base 3.2.0
 rb_str_comparable@Base 3.2.0
 rb_str_concat@Base 3.2.0
 rb_str_concat_literals@Base 3.2.0
 rb_str_conv_enc@Base 3.2.0
 rb_str_conv_enc_opts@Base 3.2.0
 rb_str_drop_bytes@Base 3.2.0
 rb_str_dump@Base 3.2.0
 rb_str_dup@Base 3.2.0
 rb_str_dup_frozen@Base 3.2.0
 rb_str_ellipsize@Base 3.2.0
 rb_str_encode@Base 3.2.0
 rb_str_encode_ospath@Base 3.2.0
 rb_str_eql@Base 3.2.0
 rb_str_equal@Base 3.2.0
 rb_str_export@Base 3.2.0
 rb_str_export_locale@Base 3.2.0
 rb_str_export_to_enc@Base 3.2.0
 rb_str_format@Base 3.2.0
 rb_str_free@Base 3.2.0
 rb_str_freeze@Base 3.2.0
 rb_str_hash@Base 3.2.0
 rb_str_hash_cmp@Base 3.2.0
 rb_str_inspect@Base 3.2.0
 rb_str_intern@Base 3.2.0
 rb_str_length@Base 3.2.0
 rb_str_locktmp@Base 3.2.0
 rb_str_locktmp_ensure@Base 3.2.0
 rb_str_make_embedded@Base 3.2.0
 rb_str_memsize@Base 3.2.0
 rb_str_modify@Base 3.2.0
 rb_str_modify_expand@Base 3.2.0
 rb_str_new@Base 3.2.0
 rb_str_new_cstr@Base 3.2.0
 rb_str_new_frozen@Base 3.2.0
 rb_str_new_shared@Base 3.2.0
 rb_str_new_static@Base 3.2.0
 rb_str_new_with_class@Base 3.2.0
 rb_str_offset@Base 3.2.0
 rb_str_opt_plus@Base 3.2.0
 rb_str_plus@Base 3.2.0
 rb_str_reembeddable_p@Base 3.2.0
 rb_str_replace@Base 3.2.0
 rb_str_resize@Base 3.2.0
 rb_str_resurrect@Base 3.2.0
 rb_str_scrub@Base 3.2.0
 rb_str_set_len@Base 3.2.0
 rb_str_setter@Base 3.2.0
 rb_str_shared_replace@Base 3.2.0
 rb_str_size_as_embedded@Base 3.2.0
 rb_str_split@Base 3.2.0
 rb_str_strlen@Base 3.2.0
 rb_str_sublen@Base 3.2.0
 rb_str_subpos@Base 3.2.0
 rb_str_subseq@Base 3.2.0
 rb_str_substr@Base 3.2.0
 rb_str_succ@Base 3.2.0
 rb_str_times@Base 3.2.0
 rb_str_tmp_frozen_acquire@Base 3.2.0
 rb_str_tmp_frozen_release@Base 3.2.0
 rb_str_tmp_new@Base 3.2.0
 rb_str_to_dbl@Base 3.2.0
 rb_str_to_interned_str@Base 3.2.0~preview2
 rb_str_to_inum@Base 3.2.0
 rb_str_to_str@Base 3.2.0
 rb_str_unlocktmp@Base 3.2.0
 rb_str_update@Base 3.2.0
 rb_str_update_shared_ary@Base 3.2.0
 rb_str_upto_each@Base 3.2.0
 rb_str_upto_endless_each@Base 3.2.0
 rb_str_vcatf@Base 3.2.0
 rb_string_value@Base 3.2.0
 rb_string_value_cstr@Base 3.2.0
 rb_string_value_ptr@Base 3.2.0
 rb_struct_alloc@Base 3.2.0
 rb_struct_alloc_noinit@Base 3.2.0
 rb_struct_aref@Base 3.2.0
 rb_struct_aset@Base 3.2.0
 rb_struct_define@Base 3.2.0
 rb_struct_define_under@Base 3.2.0
 rb_struct_define_without_accessor@Base 3.2.0
 rb_struct_define_without_accessor_under@Base 3.2.0
 rb_struct_getmember@Base 3.2.0
 rb_struct_initialize@Base 3.2.0
 rb_struct_members@Base 3.2.0
 rb_struct_new@Base 3.2.0
 rb_struct_s_members@Base 3.2.0
 rb_struct_size@Base 3.2.0
 rb_suspend_coverages@Base 3.2.0
 rb_sym2id@Base 3.2.0
 rb_sym2str@Base 3.2.0
 rb_sym_all_symbols@Base 3.2.0
 rb_sym_immortal_count@Base 3.2.0
 rb_sym_proc_call@Base 3.2.0
 rb_sym_to_proc@Base 3.2.0
 rb_sym_to_s@Base 3.2.0
 rb_symname_p@Base 3.2.0
 rb_sys_fail@Base 3.2.0
 rb_sys_fail_path_in@Base 3.2.0
 rb_sys_fail_str@Base 3.2.0
 rb_sys_warning@Base 3.2.0
 rb_syserr_fail@Base 3.2.0
 rb_syserr_fail_path_in@Base 3.2.0
 rb_syserr_fail_str@Base 3.2.0
 rb_syserr_new@Base 3.2.0
 rb_syserr_new_path_in@Base 3.2.0
 rb_syserr_new_str@Base 3.2.0
 rb_syswait@Base 3.2.0
 rb_thread_add_event_hook2@Base 3.2.0
 rb_thread_add_event_hook@Base 3.2.0
 rb_thread_alone@Base 3.2.0
 rb_thread_atfork@Base 3.2.0
 rb_thread_atfork_before_exec@Base 3.2.0
 rb_thread_call_with_gvl@Base 3.2.0
 rb_thread_call_without_gvl2@Base 3.2.0
 rb_thread_call_without_gvl@Base 3.2.0
 rb_thread_check_ints@Base 3.2.0
 rb_thread_check_trap_pending@Base 3.2.0
 rb_thread_create@Base 3.2.0
 rb_thread_current@Base 3.2.0
 rb_thread_fd_close@Base 3.2.0
 rb_thread_fd_select@Base 3.2.0
 rb_thread_fd_writable@Base 3.2.0
 rb_thread_interrupted@Base 3.2.0
 rb_thread_io_blocking_region@Base 3.2.0
 rb_thread_kill@Base 3.2.0
 rb_thread_local_aref@Base 3.2.0
 rb_thread_local_aset@Base 3.2.0
 rb_thread_main@Base 3.2.0
 rb_thread_remove_event_hook@Base 3.2.0
 rb_thread_remove_event_hook_with_data@Base 3.2.0
 rb_thread_run@Base 3.2.0
 rb_thread_schedule@Base 3.2.0
 rb_thread_sleep@Base 3.2.0
 rb_thread_sleep_deadly@Base 3.2.0
 rb_thread_sleep_forever@Base 3.2.0
 rb_thread_stop@Base 3.2.0
 rb_thread_wait_fd@Base 3.2.0
 rb_thread_wait_for@Base 3.2.0
 rb_thread_wakeup@Base 3.2.0
 rb_thread_wakeup_alive@Base 3.2.0
 rb_threadptr_execute_interrupts@Base 3.2.0
 rb_throw@Base 3.2.0
 rb_throw_obj@Base 3.2.0
 rb_time_interval@Base 3.2.0
 rb_time_nano_new@Base 3.2.0
 rb_time_new@Base 3.2.0
 rb_time_num_new@Base 3.2.0
 rb_time_timespec@Base 3.2.0
 rb_time_timespec_interval@Base 3.2.0
 rb_time_timespec_new@Base 3.2.0
 rb_time_timeval@Base 3.2.0
 rb_time_utc_offset@Base 3.2.0
 rb_timespec_now@Base 3.2.0
 rb_to_encoding@Base 3.2.0
 rb_to_encoding_index@Base 3.2.0
 rb_to_float@Base 3.2.0
 rb_to_hash_type@Base 3.2.0
 rb_to_id@Base 3.2.0
 rb_to_int@Base 3.2.0
 rb_to_symbol@Base 3.2.0
 rb_tracearg_binding@Base 3.2.0
 rb_tracearg_callee_id@Base 3.2.0
 rb_tracearg_defined_class@Base 3.2.0
 rb_tracearg_event@Base 3.2.0
 rb_tracearg_event_flag@Base 3.2.0
 rb_tracearg_from_tracepoint@Base 3.2.0
 rb_tracearg_lineno@Base 3.2.0
 rb_tracearg_method_id@Base 3.2.0
 rb_tracearg_object@Base 3.2.0
 rb_tracearg_path@Base 3.2.0
 rb_tracearg_raised_exception@Base 3.2.0
 rb_tracearg_return_value@Base 3.2.0
 rb_tracearg_self@Base 3.2.0
 rb_tracepoint_disable@Base 3.2.0
 rb_tracepoint_enable@Base 3.2.0
 rb_tracepoint_enabled_p@Base 3.2.0
 rb_tracepoint_new@Base 3.2.0
 rb_true_to_s@Base 3.2.0
 rb_typeddata_inherited_p@Base 3.2.0
 rb_typeddata_is_kind_of@Base 3.2.0
 rb_uint2big@Base 3.2.0
 rb_uint2inum@Base 3.2.0
 rb_ull2inum@Base 3.2.0
 rb_undef@Base 3.2.0
 rb_undef_alloc_func@Base 3.2.0
 rb_undef_method@Base 3.2.0
 rb_undefine_finalizer@Base 3.2.0
 rb_unexpected_type@Base 3.2.0
 rb_update_max_fd@Base 3.2.0
 rb_usascii_encindex@Base 3.2.0
 rb_usascii_encoding@Base 3.2.0
 rb_usascii_str_new@Base 3.2.0
 rb_usascii_str_new_cstr@Base 3.2.0
 rb_usascii_str_new_static@Base 3.2.0
 rb_utf8_encindex@Base 3.2.0
 rb_utf8_encoding@Base 3.2.0
 rb_utf8_str_new@Base 3.2.0
 rb_utf8_str_new_cstr@Base 3.2.0
 rb_utf8_str_new_static@Base 3.2.0
 rb_uv_to_utf8@Base 3.2.0
 rb_vm_call0@Base 3.2.0
 rb_vm_call_kw@Base 3.2.0
 rb_vm_call_with_refinements@Base 3.2.0
 rb_vm_empty_cc@Base 3.2.0
 rb_vm_empty_cc_for_super@Base 3.2.0
 rb_vm_exec@Base 3.2.0
 rb_vm_get_ruby_level_next_cfp@Base 3.2.0
 rb_vm_insn_len_info@Base 3.2.0
 rb_vm_insn_name_base@Base 3.2.0
 rb_vm_insn_name_offset@Base 3.2.0
 rb_vm_insn_op_base@Base 3.2.0
 rb_vm_insn_op_offset@Base 3.2.0
 rb_vm_invoke_bmethod@Base 3.2.0
 rb_vm_invoke_proc@Base 3.2.0
 rb_vm_localjump_error@Base 3.2.0
 rb_vm_lock_enter_body@Base 3.2.0~preview2
 rb_vm_lock_enter_body_cr@Base 3.2.0~preview2
 rb_vm_lock_enter_body_nb@Base 3.2.0~preview2
 rb_vm_lock_leave_body@Base 3.2.0~preview2
 rb_vm_make_proc_lambda@Base 3.2.0
 rb_vm_max_insn_name_size@Base 3.2.0
 rb_vm_search_method_slowpath@Base 3.2.0
 rb_vrescue2@Base 3.2.0
 rb_vsprintf@Base 3.2.0
 rb_wait_for_single_fd@Base 3.2.0
 rb_waitpid@Base 3.2.0
 rb_warn@Base 3.2.0
 rb_warning@Base 3.2.0
 rb_warning_category_enabled_p@Base 3.2.0
 rb_wb_protected_newobj_of@Base 3.2.0
 rb_wb_unprotected_newobj_of@Base 3.2.0
 rb_write_error2@Base 3.2.0
 rb_write_error@Base 3.2.0
 rb_write_error_str@Base 3.2.0
 rb_yield@Base 3.2.0
 rb_yield_block@Base 3.2.0
 rb_yield_splat@Base 3.2.0
 rb_yield_splat_kw@Base 3.2.0
 rb_yield_values2@Base 3.2.0
 rb_yield_values@Base 3.2.0
 rb_yield_values_kw@Base 3.2.0
 rb_yjit_before_ractor_spawn@Base 3.2.0
 rb_yjit_bop_redefined@Base 3.2.0
 rb_yjit_call_threshold@Base 3.2.0
 rb_yjit_cme_invalidate@Base 3.2.0
 rb_yjit_code_gc@Base 3.2.0
 rb_yjit_collect_binding_alloc@Base 3.2.0
 rb_yjit_collect_binding_set@Base 3.2.0
 rb_yjit_collect_vm_usage_insn@Base 3.2.0
 rb_yjit_constant_ic_update@Base 3.2.0
 rb_yjit_constant_state_changed@Base 3.2.0
 rb_yjit_count_side_exit_op@Base 3.2.0
 rb_yjit_disasm_iseq@Base 3.2.0
 rb_yjit_enabled_p@Base 3.2.0
 rb_yjit_get_exit_locations@Base 3.2.0
 rb_yjit_get_stats@Base 3.2.0
 rb_yjit_init_rust@Base 3.2.0
 rb_yjit_insns_compiled@Base 3.2.0
 rb_yjit_iseq_free@Base 3.2.0
 rb_yjit_iseq_gen_entry_point@Base 3.2.0
 rb_yjit_iseq_mark@Base 3.2.0
 rb_yjit_iseq_update_references@Base 3.2.0
 rb_yjit_parse_option@Base 3.2.0
 rb_yjit_record_exit_stack@Base 3.2.0
 rb_yjit_reset_stats_bang@Base 3.2.0
 rb_yjit_root_mark@Base 3.2.0
 rb_yjit_simulate_oom_bang@Base 3.2.0
 rb_yjit_stats_enabled_p@Base 3.2.0
 rb_yjit_trace_exit_locations_enabled_p@Base 3.2.0
 rb_yjit_tracing_invalidate_all@Base 3.2.0
 rb_yytnamerr@Base 3.2.0
 ruby_Init_Continuation_body@Base 3.2.0
 ruby_api_version@Base 3.2.0
 ruby_brace_glob@Base 3.2.0
 ruby_cleanup@Base 3.2.0
 ruby_copyright@Base 3.2.0
 ruby_current_ec@Base 3.2.0~preview2
 ruby_current_vm_ptr@Base 3.2.0
 ruby_debug_breakpoint@Base 3.2.0
 ruby_debug_counter_get@Base 3.2.0
 ruby_debug_counter_reset@Base 3.2.0
 ruby_debug_counter_show_at_exit@Base 3.2.0
 ruby_debug_print_id@Base 3.2.0
 ruby_debug_print_indent@Base 3.2.0
 ruby_debug_print_node@Base 3.2.0
 ruby_debug_print_value@Base 3.2.0
 ruby_debug_printf@Base 3.2.0
 ruby_default_signal@Base 3.2.0
 ruby_description@Base 3.2.0
 ruby_digit36_to_number_table@Base 3.2.0
 ruby_each_words@Base 3.2.0
 ruby_enc_find_basename@Base 3.2.0
 ruby_enc_find_extname@Base 3.2.0
 ruby_engine@Base 3.2.0
 ruby_exec_node@Base 3.2.0
 ruby_executable_node@Base 3.2.0
 ruby_finalize@Base 3.2.0
 ruby_float_mod@Base 3.2.0
 ruby_getcwd@Base 3.2.0
 ruby_glob@Base 3.2.0
 ruby_global_name_punct_bits@Base 3.2.0
 ruby_hexdigits@Base 3.2.0
 ruby_incpush@Base 3.2.0
 ruby_init@Base 3.2.0
 ruby_init_loadpath@Base 3.2.0
 ruby_init_setproctitle@Base 3.2.0
 ruby_init_stack@Base 3.2.0
 ruby_malloc_size_overflow@Base 3.2.0
 ruby_native_thread_p@Base 3.2.0
 ruby_node_name@Base 3.2.0
 ruby_options@Base 3.2.0
 ruby_patchlevel@Base 3.2.0
 ruby_platform@Base 3.2.0
 ruby_posix_signal@Base 3.2.0
 ruby_process_options@Base 3.2.0
 ruby_prog_init@Base 3.2.0
 ruby_release_date@Base 3.2.0
 ruby_reset_leap_second_info@Base 3.2.0
 ruby_reset_timezone@Base 3.2.0
 ruby_run_node@Base 3.2.0
 ruby_scan_digits@Base 3.2.0
 ruby_scan_hex@Base 3.2.0
 ruby_scan_oct@Base 3.2.0
 ruby_script@Base 3.2.0
 ruby_set_argv@Base 3.2.0
 ruby_set_debug_option@Base 3.2.0
 ruby_set_script_name@Base 3.2.0
 ruby_setenv@Base 3.2.0
 ruby_setup@Base 3.2.0
 ruby_show_copyright@Base 3.2.0
 ruby_show_version@Base 3.2.0
 ruby_sig_finalize@Base 3.2.0
 ruby_signal_name@Base 3.2.0
 ruby_single_main_ractor@Base 3.2.0~preview2
 ruby_sized_xfree@Base 3.2.0
 ruby_sized_xrealloc2@Base 3.2.0
 ruby_sized_xrealloc@Base 3.2.0
 ruby_snprintf@Base 3.2.0
 ruby_stack_check@Base 3.2.0
 ruby_stack_length@Base 3.2.0
 ruby_stop@Base 3.2.0
 ruby_strdup@Base 3.2.0
 ruby_strtod@Base 3.2.0
 ruby_strtoul@Base 3.2.0
 ruby_sysinit@Base 3.2.0
 ruby_thread_has_gvl_p@Base 3.2.0
 ruby_unsetenv@Base 3.2.0
 ruby_version@Base 3.2.0
 ruby_vm_at_exit@Base 3.2.0
 ruby_vm_const_missing_count@Base 3.2.0
 ruby_vm_constant_cache_invalidations@Base 3.2.0
 ruby_vm_constant_cache_misses@Base 3.2.0
 ruby_vm_destruct@Base 3.2.0
 ruby_vm_event_enabled_global_flags@Base 3.2.0
 ruby_vm_event_flags@Base 3.2.0
 ruby_vm_event_local_num@Base 3.2.0
 ruby_vm_global_cvar_state@Base 3.2.0
 ruby_vm_redefined_flag@Base 3.2.0
 ruby_vsnprintf@Base 3.2.0
 ruby_xcalloc@Base 3.2.0
 ruby_xfree@Base 3.2.0
 ruby_xmalloc2@Base 3.2.0
 ruby_xmalloc@Base 3.2.0
 ruby_xrealloc2@Base 3.2.0
 ruby_xrealloc@Base 3.2.0
 rust_begin_unwind@Base 3.2.0
 rust_eh_personality@Base 3.2.0
 rust_oom@Base 3.2.0
 rust_panic@Base 3.2.0
 setproctitle@Base 3.2.0
 strlcat@Base 3.2.0
 strlcpy@Base 3.2.0
